ccopy_reg
_reconstructor
p1
(cpylearn2.models.mlp
MLP
p2
c__builtin__
object
p3
NtRp4
ccollections
OrderedDict
p5
((lp6
(lp7
S'layers'
p8
a(lp9
g1
(cpylearn2.models.mlp
Sigmoid
p10
g3
NtRp11
g5
((lp12
(lp13
S'copy_input'
p14
aNaa(lp15
S'use_abs_loss'
p16
aI00
aa(lp17
S'init_bias'
p18
aF0
aa(lp19
S'requires_reformat'
p20
aI00
aa(lp21
S'mask_weights'
p22
aNaa(lp23
S'use_bias'
p24
aI01
aa(lp25
S'input_space'
p26
ag1
(cpylearn2.space
VectorSpace
p27
g3
NtRp28
(dp29
S'dim'
p30
I10
sS'_dtype'
p31
S'float64'
p32
sS'validate_callbacks'
p33
(lp34
sS'sparse'
p35
I00
sS'np_validate_callbacks'
p36
(lp37
sbaa(lp38
S'transformer'
p39
ag1
(cpylearn2.linear.matrixmul
MatrixMul
p40
g3
NtRp41
(dp42
S'_W'
p43
g1
(ctheano.tensor.sharedvar
TensorSharedVariable
p44
g3
NtRp45
(dp46
S'auto_name'
p47
S'auto_9'
p48
sS'index'
p49
NsS'tag'
p50
(itheano.gof.utils
scratchpad
p51
(dp52
S'trace'
p53
(lp54
(S'/usr/local/lib/python2.7/site-packages/theano/compile/sharedvalue.py'
p55
I209
S'shared'
p56
S'utils.add_tag_trace(var)'
tp57
asbsS'container'
p58
g1
(ctheano.gof.link
Container
p59
g3
NtRp60
(dp61
S'name'
p62
NsS'storage'
p63
(lp64
cnumpy.core.multiarray
_reconstruct
p65
(cnumpy
ndarray
p66
(I0
tS'b'
tRp67
(I1
(I10
I10
tcnumpy
dtype
p68
(S'f8'
I0
I1
tRp69
(I3
S'<'
NNNI-1
I-1
I0
tbI00
S'\xaa\xd7l\xe3\xfd=r\'\x0bV~=\x99\xe7\xd5)k)\x06\x01\xe9\xf5Q?\x9d\x1c\x00\xdc\x04\xe6q=qm\xa4\x8c+q\xee\xbf\x00\x00\x00\x00\x00\x00\x00\x00^U\xaa\x81\xe4\x86#3u^\x8e\x9bS\x94\x8f\xbeM\x13\xd3?yB\xde\xb7w>\xfc\x83`\x1f\xda?\xc3\x1a\xffc\xa6\xcd\xf0\xbfi\x9b\xca1x:\xc6)k)\x06\x01\xe9\xf5Q?\xd0\xdc\xcf\xa3\x8c\x18c=]\x0c\xf2\xcd3\xa6}8\xa8O\xa2l\xc2\x9f\xec?\x9aA\x7f\x85br\xf6\xbf\x94\x1a\x8c\x95\x05\xf9\xf4?(IPg\xbdj\xb8\xb7j\x8fn\x81\xd5\x8d0\x91\xdb\x17V\x97Z7m\'\xc5\xe5,\xa3\x97Z\xdb)g\x81\xf4\xf0\xb5"\xfa?Sb\x85\x90\xe6w\x02@l\xda\xa0\xedy\xeb\t8\x00\x00\x00\x00\x00\x00\x00\x00\xb2\xdeH\xcd\x1b.\x8a3f\x08(]&\xdf\xd1\xbf\xfbQt\x985C\xde\xb7\xf0\xc2L1 \x12@\x91I\x1a\x84-\x80\x06\x07\'\x186\xf6y?\x94\xde?\x80V\x99O\xde\xae\xd2\xbf\xfb\x18\xa4\x1a\x03s\xf1\xbf]\x0c\xf2\xcd3\xa6}8&9\x86\x8b\x0cB\xf3?\xe7\xcd\xa5\xd9\xc2>\xd5\xbf\xafbC"n\x8b\x8e\xbe\xe9\x1d1<\xe6\xa3\xf8\xbf\xf0\xc2L1 \x12@\x91\xb6/\x14b=c\xc7?\x86\xf3\x1d\x99\xc0\x16\x99?\x13\x02\xc0\xb5\x10PR?\x17|~?\x82!`=\x13<n_\x1f\t\xe7?T"\xd20\xf6\xbe\xdc\xbf:\xc1\xd2/R\xb8\xd1?P\xfe2\xae\x84\xa4\xcc?\xf8\x9a\xae\x9e\xfb\x96k\xb7p\xb9w\x12\x8b\xa8O\x91\x19\xa2\x04\'\xbf.\xd5\xbfH\x80\x18\x18\x98\xf4\xdb)\x0ch\xdc\xbe\xe4\'\xfc\xbf\x05\x19\x9b\xb2\xc2\x0e\t=\xabr\x85[\x90\r\xb77\x1dc\xbc\x03)\x80\xf5?\xcd\xc6\xf3\x0c\x13.\x8a3\xfb\xb3\xf1\xd3%T\x1e\xbe\x05\x91\xae>\x8b\xa3\xe2?\x05\x03\xedN\xdd\xce\xc7\xbf\xe3%\xdeK\xdc\x9d\xc0?\xeb`w\x88<\xd1\xea?f\x90o\xfd\x98\x04\xe1?\xbf_\xe2\xa3\xdb\xf8\xf1\xbf@\xc8\xdb%_\xb2\xed\xbf\x00\x00\x00\x00\x00\x00\x00\x00\xbc\x83F\xf5\x06\t\xf5\xbfPJ\x12`\xd3\x15\xfc?\xade\x9d\xa6\xe0u\xe7?\t\xbbc\x16\x8b\xa8O\x91\xf4\'BVg\xf7\xde\xbfR\xd7V\x05\xfa\x05\xd8\xbf\x0eMO\x81F2\xe6?4\xde;Y,1\x00\xc0\xabr\x85[\x90\r\xb77\x17\xbb\x90\xe4\x8f\xfc\xed?\x1e\xe2\xa1[\xd4\x0e\xfa?8\xca\xebi\x8d\xf4\x1d\xbe+\xa1\x8c\x90\x80\xb1l\xb7\xcc\xbf\x92M\xdb\xf7\xec?\xdb\x17V\x97Z7m\'\x0bV~=\x99\xe7\xd5)\xeb<X\xf4\x1cPL?:Dm\xfb\xb6\x11\x0e=\xfd\x06\xabQ\xa2\x08\xf2\xbf\x00\x00\x00\x00\x00\x00\x00\x00\x8dr\xda|\x997\x8a3\xa4\xf3P\xd6\xe2\x9e\xd4\xbf\xb9\xd9\xac\r\xca\x05\xf1?\x17\xf6\xcd\x9f\x91\xf4\xe2?\x80\xf40\xa5\xe0\xa5]\'VUZcl#\xf9?\x8aO\xd5j\xccP\xe6>\xaa\xd2\t\xb4\x877\xe2\xbf\xccS|\xd3\xa1Y\xf1?\x00\x00\x00\x00\x00\x00\x00\x00\x82\x10\x88\x07vZ\x8a3\xa1\xe2\xb7\xd7\x01\xa6\x8f\xbep&\x19\x81\xf7]\xf7?\xae9\xe0#\xc4N\x8b?'
tbasS'strict'
p70
I00
sS'readonly'
p71
I00
sS'type'
p72
g1
(ctheano.tensor.type
TensorType
p73
g3
NtRp74
(dp75
S'broadcastable'
p76
(I00
I00
tp77
sS'dtype'
p78
S'float64'
p79
sS'numpy_dtype'
p80
g69
sS'sparse_grad'
p81
I00
sg62
NsbsS'allow_downcast'
p82
Nsbsg62
S'h0_W'
p83
sS'owner'
p84
Nsg72
g74
sbsbaa(lp85
S'mlp'
p86
ag4
aa(lp87
S'W_lr_scale'
p88
aNaa(lp89
S'names_to_del'
p90
ac__builtin__
set
p91
((ltRp92
aa(lp93
S'sparse_stdev'
p94
aF1
aa(lp95
S'max_row_norm'
p96
aNaa(lp97
S'extensions'
p98
a(lp99
aa(lp100
S'output_space'
p101
ag1
(g27
g3
NtRp102
(dp103
g30
I10
sg31
g32
sg33
(lp104
sg35
I00
sg36
(lp105
sbaa(lp106
S'istdev'
p107
aNaa(lp108
S'monitor_style'
p109
aS'detection'
p110
aa(lp111
S'include_prob'
p112
aF1
aa(lp113
S'sparse_init'
p114
aI5
aa(lp115
S'layer_name'
p116
aS'h0'
p117
aa(lp118
S'irange'
p119
aNaa(lp120
g30
aI10
aa(lp121
S'b'
ag1
(g44
g3
NtRp122
(dp123
g47
S'auto_7'
p124
sg49
Nsg50
(itheano.gof.utils
scratchpad
p125
(dp126
g53
(lp127
(g55
I209
g56
S'utils.add_tag_trace(var)'
tp128
asbsg58
g1
(g59
g3
NtRp129
(dp130
g62
S'h0_b'
p131
sg63
(lp132
g65
(g66
(I0
tS'b'
tRp133
(I1
(I10
tg69
I00
S"\xbb\xdaB\xa1\xaey\x9d&\x10\xe6x6R\x19\x06)\x9d2m\xd0a\x90|>\xde#:\x1ct\t\xa0<\xabr\x85[\x90\r\xa77\x00\x00\x00\x00\x00\x00\x00\x00\xdd\xb4\x95Pq\xd1\xb42QLvf\xf5\x91\xb8\xbd\x95\xd9\xd5'\x14\x8b\x07\xb7\xa7Fd\x02`\xec\x7f\x90"
tbasg70
I00
sg71
I00
sg72
g1
(g73
g3
NtRp134
(dp135
g76
(I00
tp136
sg78
S'float64'
p137
sg80
g69
sg81
I00
sg62
Nsbsg82
Nsbsg62
g131
sg84
Nsg72
g134
sbaa(lp138
S'yaml_src'
p139
aS"!obj:pylearn2.models.mlp.Sigmoid {layer_name: 'h0', dim: 10, sparse_init: 5}\n"
p140
aa(lp141
S'b_lr_scale'
p142
aNaa(lp143
S'max_col_norm'
p144
aNaa(lp145
S'min_col_norm'
p146
aNaa(lp147
S'input_dim'
p148
aI10
aatRp149
bag1
(cpylearn2.models.mlp
Softmax
p150
g3
NtRp151
g5
((lp152
(lp153
S'_has_binary_target'
p154
aI00
aa(lp155
S'W'
ag1
(g44
g3
NtRp156
(dp157
g47
S'auto_10'
p158
sg49
Nsg50
(itheano.gof.utils
scratchpad
p159
(dp160
g53
(lp161
(g55
I209
g56
S'utils.add_tag_trace(var)'
tp162
asbsg58
g1
(g59
g3
NtRp163
(dp164
g62
S'softmax_W'
p165
sg63
(lp166
g65
(g66
(I0
tS'b'
tRp167
(I1
(I10
I2
tg69
I00
S'\x89\x8d7\xe1=\xea\xa7\xbf\x89\x8d7\xe1=\xea\xa7?k\x9f@!I\xb0\xb3\xbf\x80\x9f@!I\xb0\xb3?\xbf\x89rV\xf1\xebz\xbf\x8b\x89rV\xf1\xebz?|\\\xc8z\xff\xfd\x92\xbf\x86\\\xc8z\xff\xfd\x92?\xaa\xda\xb7\xe8\x01\xcd\xb6?\xb7\xda\xb7\xe8\x01\xcd\xb6\xbf\\\x1a\xb6^\xf6\xd3\xad\xbf\xaa\x1a\xb6^\xf6\xd3\xad?\xa4#*6\xa0\x15\xa8\xbf\x9b#*6\xa0\x15\xa8?\xe6\xfb\xc0p+\x7f\xad\xbf\x0e\xfc\xc0p+\x7f\xad?\xbbi\x0e\xc7\x0e\x0b\xbc\xbf\xb5i\x0e\xc7\x0e\x0b\xbc?J\x85\xf1L\xea\xc6\x9f\xbf$\x86\xf1L\xea\xc6\x9f?'
tbasg70
I00
sg71
I00
sg72
g1
(g73
g3
NtRp168
(dp169
g76
(I00
I00
tp170
sg78
S'float64'
p171
sg80
g69
sg81
I00
sg62
Nsbsg82
Nsbsg62
g165
sg84
Nsg72
g168
sbaa(lp172
S'needs_reformat'
p173
aI00
aa(lp174
g26
ag102
aa(lp175
g144
aNaa(lp176
g88
aNaa(lp177
g90
ag91
((ltRp178
aa(lp179
g96
aNaa(lp180
g101
ag1
(g27
g3
NtRp181
(dp182
g30
I2
sg31
g32
sg33
(lp183
sg35
I00
sg36
(lp184
sbaa(lp185
S'non_redundant'
p186
aI00
aa(lp187
g107
aNaa(lp188
S'binary_target_dim'
p189
aNaa(lp190
S'n_classes'
p191
aI2
aa(lp192
g114
aNaa(lp193
S'no_affine'
p194
aI00
aa(lp195
g116
aS'y'
aa(lp196
g119
aF0
aa(lp197
S'desired_space'
p198
ag1
(g27
g3
NtRp199
(dp200
g30
I10
sg31
g32
sg33
(lp201
sg35
I00
sg36
(lp202
sbaa(lp203
S'_params'
p204
a(lp205
g1
(g44
g3
NtRp206
(dp207
g47
S'auto_8'
p208
sg49
Nsg50
(itheano.gof.utils
scratchpad
p209
(dp210
g53
(lp211
(g55
I209
g56
S'utils.add_tag_trace(var)'
tp212
asbsg58
g1
(g59
g3
NtRp213
(dp214
g62
S'softmax_b'
p215
sg63
(lp216
g65
(g66
(I0
tS'b'
tRp217
(I1
(I2
tg69
I00
S'\xad\xd5\xec9\xf7\x96\xb6\xbf\xbb\xd5\xec9\xf7\x96\xb6?'
tbasg70
I00
sg71
I00
sg72
g1
(g73
g3
NtRp218
(dp219
g76
(I00
tp220
sg78
S'float64'
p221
sg80
g69
sg81
I00
sg62
Nsbsg82
Nsbsg62
g215
sg84
Nsg72
g218
sbag156
aaa(lp222
S'b'
ag206
aa(lp223
g139
aS"!obj:pylearn2.models.mlp.Softmax {layer_name: 'y', n_classes: 2, irange: 0.}\n"
p224
aa(lp225
g142
aNaa(lp226
g86
ag4
aa(lp227
g98
a(lp228
aa(lp229
g148
aI10
aatRp230
baaa(lp231
g26
ag28
aa(lp232
S'layer_names'
p233
ag91
((lp234
S'y'
ag117
atRp235
aa(lp236
S'freeze_set'
p237
ag91
((ltRp238
aa(lp239
g139
aS"!obj:pylearn2.models.mlp.MLP {layers: [!obj:pylearn2.models.mlp.Sigmoid {layer_name: 'h0',\n      dim: 10, sparse_init: 5}, !obj:pylearn2.models.mlp.Softmax {layer_name: 'y',\n      n_classes: 2, irange: 0.}], nvis: 10}\n"
p240
aa(lp241
S'rng'
p242
acnumpy.random
__RandomState_ctor
p243
(tRp244
(S'MT19937'
p245
g65
(g66
(I0
tS'b'
tRp246
(I1
(I624
tg68
(S'u4'
I0
I1
tRp247
(I3
S'<'
NNNI-1
I-1
I0
tbI00
S'\xb84\xca\xc4\xa7\xcc\xa6\xe1\x8b\xfau\x90\x11"eY\x14\xe48n\x03\x844\x1d\x0f)\x97T\x98\xf1\x06\x14\xee\x97d#\x13\xe6\xebh\xe9\x15[\xc9M\xccKbr\xae\x8dI\x9d\xf8\xdf&D$\x88\xaf \xee\x04J\x19\x92\x9f\x88\xf7\xdb\xef\x17\xc0\x8a\r\xb8c\x1c\xfeN\xfbw,k\xe6\x89F\x17\xd0za\xb7\xcb\xd2\x0b\x87\xe7\xb5~4\xffZ\x7fQ\x989\xddC\xdd\xa5\xf5\xeb\xedi\xc8\xee\x08\x9a\x93\xb1\\\x9f\x01m\xe6\xfd\xb6A\xbc\x1a\xed:\xf0:\xb8\x92\x0e\xd9i\xe0\x08\x89\x9f\x0e\xa2v\x1f\x1a\xcc*\xa62\x02\xef\x1c\x85<\x9fTW\x05\xb4\xc2\x14\x18\x86]\xaf\xdbw1\nm\xcdQ\xba\x1f\xf6$\x89X\x8f\xae<\xa1\xc8\x06\xd0(\x9f\x12L\xa6I\x7f\xe6a%\xd3\xfc\x08\x14\xf7\x02C\xf8\x1ev\x18,_\x846\x8f\xef>P@\xec{\xb6\x0e\x92F\x02\xeb60\xf1 \x94%\xdb\x9cb\xbc\x9c\xc3a\xf6\x02M\x1c\xc9\xf4UIK}%Y\x0f\x82\x01\x15I\xdb\xc3f\xb8eP\x95\xa5S\xbb\xb6\xce<\xc1\x04B>o\x07\xd6\x03\xbeq\x87\xe2\xe6lN\x8e\t\xefa\xff\x90\xb9oOxY\xfc\xedp\xc3\x1e\x02kY\xf2\xaf\xcaZV\x00y\xc1\xce\x14\xff\x93\xbdP\xf9~\x93~\xf9V\x1aU\xe2-3\xb9\x02\xdb\xbdJ5N\xca\x82\xb2\xa9CY\x1e\x02\xf4wu/BA\x99\x94s\x15tn\xb1\xb9\x9c8\xca\xdc\x15\x0f\x9dI\x02N$M\x05XkS\xc7\xa7\xb4\xde\xd5\xe5\x81\x85\xe6\xa1\x1c\x9f\x03h\x9bP]\xec\x07\x89\xcf\xaf=L\x92\x0b}\x93~5\x8f\xc4}\xae\x97\xae\xd5]L\xea\x9c5i|\xc6\\\x9dAj\xb6\xb6\xb8\xe1\xc5CO;v\x17Wq\xe2A\x82,2\xa2\xb9\xb8\xads\xc4g\x01\x96\xb7\xca\xde\xad\xa5-!\xa9\xfb\xda\xec\x14\xd3>[\xe6\x82M\xa5\x8c\xf0\x1b\xb7\xff\n\xd3}\xa4=\xb3\n,\xe5\'`m\x8e\x85\xdca\x8a\xd6\xfa\xc3\x88Ls\x18\x87\xc9lx\xcb\xf1\xd1\x9f\x8b\x0c\'b\x05\x11\xe5\xc20\r^\xbc_\x07N\xec\xaf!/\xaf\xf9\xa7\x1c\x91\xa5*4\xa3/.\xdc2\x13\xbd\xca\x84\xc4\x1a|\xea\x1b\xc1\xde\xd2\xe9\xaet0N\x19\xde\xff\x8f\xfe\xe1lm\x18il\xf5\x9fbQ\x13\n@\xc3\xb4\xb2\t\x8a\t\xe7E\x83<\xb6\xc2\x87n\xed\xf0\xb6\xc2\x9fm\x84\xcd\xf8\xe0\xa3\xa2\xb9ej\xd5\xc6\xc3\xd4\x1f\x04\xca\xfc`2\xc2\x02\xa0\x86Y\xe23\xa7A\xad\x94\xb8\xfc\x19\x1d\xb9_\xff\xcf-k\x9ec/f%\xbf\x11\x02\x86\x08\xf1\xc9\xe1\x8dc\x80\xdc&I\t\xae\x8e\x18\xecy\xe2\x04\x04u:x\x92\xaeV\x02r\x90QFQ?&\x00\x1evP\x9e+\x9aN\x13\xa5Bj\rS\xaa\xae\xb7\xee\x84N\xdc\x01\x83\xf6\xdaF\xec\x15\xebY\x8a\xa9\xcf\xf8\xe0\x07x\xab\xe6\xe3E\xf4\x94a]\xc9\xa3\xfd\xfc\xce\xb9n\xe1\x0e\x08\xdaY+\x15P\xba\xb9w\x14t*\x19\xd2\xcb\x115\xd4$\tc8\xc8\x9c\x8e\xc9\x82\xb0w\x98\xe5\xf0\x14~ND\x08\x87\\`\x92P d\x19Y\xc5\xa5`x\xdfI\xd2\xd9\xfe\xebpG0sb\x02\x06Jh\x93\xeb\xaaM\x828:\x97?x\x99\x9a\x0b\xa1\xc6\x18\x06\xbd7\xeb\n\xde\x169\xb4\xb8\x88\xe6tN\x18J\xf2\xde\x00\xfd?\xeb3\xbcD\xe3\x9a\xad!A\xdc\xa0\xf2\x07F\xed\xc5\x7f\x86\x7f\x89\xd2%\xfc\x05\x96!\x13z\xe7\xf1\xd2\xcb\xbc]GY\xe2l\x04\x9f;\x16)\x8e\xc4\x9f\x85\xf5\xbc39\xfb\x8f1SXlRMJ\xdcr/J\x9cK*\xa7\xd0\xa00\xablwcX\xc8yB\xefIuf\xab\xb2\xc4\xf7\x13\xb0\xb1\x90\xe9)\x0f\xe8\xaf\xbb\xc3T\xc3\xf4\x1b\xa5 9GW"\xdd\xc1\x82\x06G\x91*\xbba\x19\x8fuE\x90\xa5\x80\xab@x#\xeb\'\xf8-\xc9\x1e\xbf\xd1T\xbb\x99\xd9w)\xea\xe4\xbdUe6\xb3\x83B\x92\xc7b\xd2\xec\'\xeft\xad\x129\x0b\xec\x02\x91\xc8\x8f\x03\xf1Y\x0fV\xc2\xc8\xdeXjl(\xb2\x14\x96u\xdb_\xc2\x05\x9c\xf7:#\xe2\x9fv\xf1\xeb\xcal\x1a@"\xfc\xe9y\xdd_w\xb2\xce\xcd`\x83\xd6=\xcc\x04\'\x8e\xf6\xf4\x9e\xcbJn\xf2a\xda\xf2c\x03B\xc5\xca\xd6\xe8\xa2]\xe9Mgi\xb3[\xf8\xf6(\xf6\x05\x8a4U\x82%\x85\xf6\xb5W\xbe\x18:?!u\xdf\xfd^\x8c\xb0\xb3\x83h\xda\xae\xcb\xab\x98\xfa\x02\xb3\x8anwI\'\x80\x99\xd4\xc2\x8f).#\xb5>\x9b\xd8B\xa4d_\xe2t\x8ac5\x06\x7f;\xb6G^\x9f\x9a\x86\x08\xc4\xbe\xdc\x853\xe3\xfc%\xeb\xf2\xd5N\x8a\xca\x97\xc3\x7fQ\xcb\x11\nl\xcd\xe1\x14\x18y\xdcc\x1128%0\x80lx=\x10)o5\xf6)MM\x1c\xdb3\x14\xc91[;\x0f\xfb>\xa0DP\xbd\xbd\x9dWm\x16\xec\x08\x91?b\xe1\xb5\r\xcd\x93:\x1e\x98\xf3\xb5\xe1\x1b\xe7\x00\xe7\xd8*~B\x1d\xd5\x89\xdf\xb7H\xe2J\xcf\x9c\xf2\x1e\x95\xfe\x0bcI\xba\x85$W|\x86\r\xe0\xa53]\x85\xf6\x08\xa7\xbb\x03/\xecy\xe5\xb0\xde1c\xee\\\x96\xb5I`i\x97\xf2\x99\xc0\xe8t\xf4\xc1\xf7E\xa7\xd6\x9c\x02\x8fO<\x84`xn\xe5\\\xf4\x90(\xaf\x8dsf\xd8V\x11\xa2E\x026\xe8\x1b\x8eu\xba]Y\xb6gt5\x07\xc0M\x04:`\x183\xccY\xb1zv\xe5\xb7\xbb\x1c\xa7Z\xda\x01\xfd\x15\xbe\xacP!=\xbcg\xfa\xf3#\xea\x1aV&\x05\xf9W\xd8\xa6\xc8r\xc1\x164\xb1\xfb\xe5E1C[\x920\xa65\xb0`\xea\xfc\x9c =bS\x97m\xd1\xcf\xc9\xa8\xf3k*\xa5\xf7_\xfcQ\x90\x84\r\x9bs\xfb\xee(l/_\x06\x05\x1eQ\xff\x17a\xabI\xeb\x06]\xecX\x87\x92\x97u\x83\xd7\xaa\x85\x86Q\xe4L7N\xa3\x1a\xd5\x8c;\xb7:\xaa\xf7=3Xp\xc6\xbb\x83\xa1y\xc7\xd58\xcc\xda7\xd0\x0b7\xa8+\xea\x08\x9f\xde\xa5\xef\x87\xc43p\x11VdN\xc7\xa1\xee\xaa\xe5\xa7pD\x93s\xf6\x05y\xf6\xd95zw\x95\xd8\x05\xcf&\x98\x9a \x80\xbd\x81\xaehc1\n\xee\xe3\x1eu\xeb\x05\x9cQw\xbe\x9d\xd6A\xd0\xdf*[m\xc7\xc6\xc8\xce\xe04\x15\x16R==\t\x98\xf9\x17\x9f>\xce\xf9\xff\xc1\xc7\xa1\xd7\x8f-\xcd\x04&\'[\xce\x82\x04\xb6\xc2\xbe\xd2\xdbuE\x1b>\xc3%\'\x90=\x03\x9b\x05\x83RB\xf33\xba0_\xca\xe7\x19\x93\x15H\xf6\x84:%\x05\xed\xc2\x01d\x98\xb9\xdeLX\xf1\xbclu\xbc?c\xd6\x13|T\xe9}\x08N\x8emB~\xf6\x1e\x8dRp\x83\xb2~&\x82d\xe8\xc4\x18\x18\xba\xa1\xff\xe1;dT\xdcm\xd6\x87>b\x1d\x05{U\xf8\xf1\x9d\x9d\xfb\xf9=m\x19\xf74E\xddID\xe9G\x17\r\xf1\x90\xd0\xcbY\x19\x9c\xe6dX\xb8\xdf\x8b\xb3\xfan\x88\xc7\x8c\xd9\x8dl\xf0\xd7\x07\t\xbc\xd1v\x15R:\x00G\x1d\xf1\xfc\xed\xb8Z\x8f\x9bkmq\xf2M\xd1\xe6\xa7\xc6A\x98\xc1\x8b\xd6m\xa1\xde\x81\xda\xaf\xd9\x1b\xa9\xea\xd27/Wj-\xfbl\xd9;\r\x90NN\xf4\x08\x1b\x0f\n\xb4t\xdc\xd6\xeb\xadA\x87j}\x92W\xe9\xf8{\xf88[\x18\xa4P\xd9\xb1\xf9+Gy(2Q\x11\xc1\x88\x18\x90\xb7\xe3\xc5\x8ez\xcc\xfc\xf4\xd9\xaeU\xb1\xf2\xb3\xf3\xb2\x80q\xf6\x18i\x17?\x15\xca\x11#)G\x93\x9c\xb2]\xbev\xc2\x8b\x9e\x87\x80(a*>\xb1P7\xda1\x0c\xd1(p\xa0\x17p\x04\x1e\x04(\x9e\x18,\xf0\x19.\x82(cg\x00\xeet`?_\x06k0\x04\x80\xc6%\xa2\xc6\xce\xd0H\xbdGS<\xe2 \x92\xbc^\xfb\xf5c\x05\xf5!\x90\x98J\x8b\xc9\xb4 _G\xab^\x18@2\x804\x19Z\xe5ZI\xe5=`\x95\xfe&(\xaf\xae\xf0\xb8\xbcT\xf6\xdd\x82\'\x95A\x95uB.\xa2~\x91\xcf\x1d\xc7\\\x9b\xfc\xc6V\xa3\xae\x1dx\xc9im8[\x8b\x9d\x1f\x1f6*\xa5\xbc\x9d\xd2\xc1:\x99\xa8z\x84\r\x91\x044\x8d<,\x10\xe3\x11\x85\x93!:$\xa8\x054]\xf1a\xaf\x90\x0c\xf6\xd3V\xaa\xb1\x83q\xdeG\xf6\x06\xffi\xb9\xa9\xf11\x99&@k\xc1\x81H\xee\xa1\x04\x97\xfe\xad\xa1\xce[\x1b\xb7\xf0/\x0e@z\xf0l_\xcb&\xc1j\xc4b(\x8b\x04\xd9\xafw\x06\xa7f9\x80\xf1y\x8bL>\xe2\xfejj"\xdft\xe3g<\xd5\xf7I4\xec:c`2[^:O\xd7\xfaB\xd21\x89j\xd6#\x81\t\xb0$\x10\xef\x81Z9O3\xaa\x08\x0b7\x1e\x0cb\xff\x14\x7f\x81\x92\xcc\x0c\xef\xfc#\x1c>I\xed.\xb4\'&e\t\xcdY6c\n\r\xa9\xae\x0cI\xea\xe1\xc6\xb8\x0b\x07\xea\x01u\x04I6O\xa8k4L"=\xbd\xa5\t\x07\xc7\xc0\xcd?\xf6K\xa4\xd9\x1d8\x8eov\x92\xb1\xc9\x0f{\xe5D\xb4S\xe4\x81\x987p\x1b\x1c$\xb2o\x9f\x93c\xf6v\x15\x8b\x7f\xc8\xc1\xb2\x94\xd5M\x94\x93\n\xae\x0bP\x02*\x12\x91\xdek\xef\xf9\xbd\xf5.\x89\xab\x7f\xfaW3\xa8\x94\xc8\x99BQ\xe9_\x90\x96s\xe9$\xe0i\xc9\xb9\xf6C\xb7A\xbb\x90\xd0\x88.\xc3\x88\xc8\x1a\xda\xc7\xad\xbeS\x1d\x82)\x19\x0b\x94\xd9e N\xf6@\xa0\x18\x0c\xd7\xe4\xbf\xbd\xad\x8a\xd6\xe7\x8a\x98\xfd\xb2\xfb\xdd\xf5\x96\xd1\xf2vj\x97\x01\xa7\xa1\xcfS{\xbe8\xac8\x91\xc4\x85\x12j]o\xba\x91\xbf\t\xd3\xff\x07\x13\xc3:v\x07\x88)\x89?\x89\xd1\xdd\xedq\xcd\x7fR\xf7\x16\xdf\x8f\x80\xa5\x93\x84>\x07\xa075w\xa4\x8a\x8f\xd4T\x8bV\x12\n\xa8\x0ed\xcc\xe5\x13\xef\x078\x95\xdbjJ\xc1\xd2\x94\x02\xa6\x17\x9b?~lN\xb4+\x07\x8a\x08\x952C\x10\x0e\x1b\xc1\xb1\xbds\x7f\xf3&\xd5\xc6Y\xab\xb9dx\xe1\x07\x0b\xb9 \x11V\x17\xf6R\xc4%\x03C\\zoB\xbb\x7fKF_;M\xfe+q\x1e-\xa5-\xc5\xcf\xaf\xafr\x05\xfc\x94\xcc\x82=\x9f\x13\x9931\x8e\xc1\x10\''
tbI252
I0
F0
tbaa(lp248
S'_tag'
p249
accollections
defaultdict
p250
(c__builtin__
dict
p251
tRp252
S'MonitorBasedSaveBest'
p253
(dp254
S'channel_name'
p255
S'valid_y_misclass'
p256
sS'hostname'
p257
S'Jeffersons-MacBook-Air.local'
p258
sS'save_path'
p259
S'/Users/jeffersonlee/cs260r/project/mlp_best.pkl'
p260
sS'best_cost'
p261
g65
(g66
(I0
tS'b'
tRp262
(I1
(tg69
I00
S'\x10\xdfA|\x07\xf1\x9d?'
tbssaa(lp263
S'_target_source'
p264
aS'targets'
p265
aa(lp266
S'_nested'
p267
aI00
aa(lp268
S'monitor_targets'
p269
aI01
aa(lp270
S'seed'
p271
a(lp272
I2013
aI1
aI4
aaa(lp273
g98
a(lp274
aa(lp275
S'batch_size'
p276
aNaa(lp277
g90
ag91
((ltRp278
aa(lp279
S'monitor'
p280
ag1
(cpylearn2.monitor
Monitor
p281
g3
NtRp282
(dp283
S'_batch_size'
p284
(lp285
I100
aI100
aI100
asS'_dirty'
p286
I00
sS'_flat_data_specs'
p287
(g1
(cpylearn2.space
CompositeSpace
p288
g3
NtRp289
(dp290
g33
(lp291
sS'components'
p292
(lp293
g28
ag181
asg36
(lp294
sb(S'features'
p295
g265
ttp296
sS'_epochs_seen'
p297
I6
sS'_num_batches'
p298
(lp299
NaNaNasS'_examples_seen'
p300
I1668210
sS'time_budget_exceeded'
p301
I00
sS'channels'
p302
g5
((lp303
(lp304
S'test_objective'
p305
ag1
(cpylearn2.monitor
MonitorChannel
p306
g3
NtRp307
(dp308
S'epoch_record'
p309
(lp310
I0
aI1
aI2
aI3
aI4
aI5
aI6
asS'doc'
p311
NsS'val_record'
p312
(lp313
g65
(g66
(I0
tS'b'
tRp314
(I1
(tg69
I00
S'\xef9\xfa\xfeB.\xe6?'
tbag65
(g66
(I0
tS'b'
tRp315
(I1
(tg69
I00
S"\x8cC\xfd\x8e8'\xf2?"
tbag65
(g66
(I0
tS'b'
tRp316
(I1
(tg69
I00
S'\x8bf\x01\x8d \xf1\xf3?'
tbag65
(g66
(I0
tS'b'
tRp317
(I1
(tg69
I00
S'\xf3\xdaz\x80\xf4\x93\xf2?'
tbag65
(g66
(I0
tS'b'
tRp318
(I1
(tg69
I00
S'\xa6T\xe7!W-\xf4?'
tbag65
(g66
(I0
tS'b'
tRp319
(I1
(tg69
I00
S'6\xb1T\x96J+\xf4?'
tbag65
(g66
(I0
tS'b'
tRp320
(I1
(tg69
I00
S'\xc5\xf3\xf0\x15 \xe4\xf1?'
tbasS'batch_record'
p321
(lp322
I0
aI2781
aI5562
aI8343
aI11124
aI13905
aI16686
asS'time_record'
p323
(lp324
F14.135289192199707
aF18.331549167633057
aF22.243813037872314
aF26.076045036315918
aF29.976580142974854
aF33.630591154098511
aF37.268989086151123
asS'example_record'
p325
(lp326
I0
aI278035
aI556070
aI834105
aI1112140
aI1390175
aI1668210
asbaa(lp327
S'test_h0_range_x_min_u'
p328
ag1
(g306
g3
NtRp329
(dp330
g309
(lp331
I0
aI1
aI2
aI3
aI4
aI5
aI6
asg311
S'This channel came from a layer called "h0" of an MLP.\n<class \'pylearn2.models.mlp.Sigmoid\'>.get_monitoring_channels_from_state did not provide any further documentation for this channel.'
p332
sg312
(lp333
g65
(g66
(I0
tS'b'
tRp334
(I1
(tg69
I00
S'\x00\x00\x00\x00\x00\x00\x00\x00'
tbag65
(g66
(I0
tS'b'
tRp335
(I1
(tg69
I00
S'\x00\x00\x00\x00\x00\x00\x00\x00'
tbag65
(g66
(I0
tS'b'
tRp336
(I1
(tg69
I00
S'\x00\x00\x00\x00\x00\x00\x00\x00'
tbag65
(g66
(I0
tS'b'
tRp337
(I1
(tg69
I00
S'\x00\x00\x00\x00\x00\x00\x00\x00'
tbag65
(g66
(I0
tS'b'
tRp338
(I1
(tg69
I00
S'\x00\x00\x00\x00\x00\x00\x00\x00'
tbag65
(g66
(I0
tS'b'
tRp339
(I1
(tg69
I00
S'\x00\x00\x00\x00\x00\x00\x00\x00'
tbag65
(g66
(I0
tS'b'
tRp340
(I1
(tg69
I00
S'\x00\x00\x00\x00\x00\x00\x00\x00'
tbasg321
(lp341
I0
aI2781
aI5562
aI8343
aI11124
aI13905
aI16686
asg323
(lp342
F14.135289192199707
aF18.331549167633057
aF22.243813037872314
aF26.076045036315918
aF29.976580142974854
aF33.630591154098511
aF37.268989086151123
asg325
(lp343
I0
aI278035
aI556070
aI834105
aI1112140
aI1390175
aI1668210
asbaa(lp344
S'test_h0_min_x_mean_u'
p345
ag1
(g306
g3
NtRp346
(dp347
g309
(lp348
I0
aI1
aI2
aI3
aI4
aI5
aI6
asg311
S'This channel came from a layer called "h0" of an MLP.\n<class \'pylearn2.models.mlp.Sigmoid\'>.get_monitoring_channels_from_state did not provide any further documentation for this channel.'
p349
sg312
(lp350
g65
(g66
(I0
tS'b'
tRp351
(I1
(tg69
I00
S'\xaahb\x82\xa0o\xde?'
tbag65
(g66
(I0
tS'b'
tRp352
(I1
(tg69
I00
S'\x00G3\x83\xa0o\xde?'
tbag65
(g66
(I0
tS'b'
tRp353
(I1
(tg69
I00
S'\xbd\x990\x83\xa0o\xde?'
tbag65
(g66
(I0
tS'b'
tRp354
(I1
(tg69
I00
S'\xbe\x16.\x83\xa0o\xde?'
tbag65
(g66
(I0
tS'b'
tRp355
(I1
(tg69
I00
S':\xb5+\x83\xa0o\xde?'
tbag65
(g66
(I0
tS'b'
tRp356
(I1
(tg69
I00
S'*H)\x83\xa0o\xde?'
tbag65
(g66
(I0
tS'b'
tRp357
(I1
(tg69
I00
S'\xc8\xdc&\x83\xa0o\xde?'
tbasg321
(lp358
I0
aI2781
aI5562
aI8343
aI11124
aI13905
aI16686
asg323
(lp359
F14.135289192199707
aF18.331549167633057
aF22.243813037872314
aF26.076045036315918
aF29.976580142974854
aF33.630591154098511
aF37.268989086151123
asg325
(lp360
I0
aI278035
aI556070
aI834105
aI1112140
aI1390175
aI1668210
asbaa(lp361
S'test_h0_mean_x_max_u'
p362
ag1
(g306
g3
NtRp363
(dp364
g309
(lp365
I0
aI1
aI2
aI3
aI4
aI5
aI6
asg311
S'This channel came from a layer called "h0" of an MLP.\n<class \'pylearn2.models.mlp.Sigmoid\'>.get_monitoring_channels_from_state did not provide any further documentation for this channel.'
p366
sg312
(lp367
g65
(g66
(I0
tS'b'
tRp368
(I1
(tg69
I00
S'\x00\x00\x00\x00\x00\x00\xf0?'
tbag65
(g66
(I0
tS'b'
tRp369
(I1
(tg69
I00
S'\x00\x00\x00\x00\x00\x00\xf0?'
tbag65
(g66
(I0
tS'b'
tRp370
(I1
(tg69
I00
S'\x00\x00\x00\x00\x00\x00\xf0?'
tbag65
(g66
(I0
tS'b'
tRp371
(I1
(tg69
I00
S'\x00\x00\x00\x00\x00\x00\xf0?'
tbag65
(g66
(I0
tS'b'
tRp372
(I1
(tg69
I00
S'\x00\x00\x00\x00\x00\x00\xf0?'
tbag65
(g66
(I0
tS'b'
tRp373
(I1
(tg69
I00
S'\x00\x00\x00\x00\x00\x00\xf0?'
tbag65
(g66
(I0
tS'b'
tRp374
(I1
(tg69
I00
S'\x00\x00\x00\x00\x00\x00\xf0?'
tbasg321
(lp375
I0
aI2781
aI5562
aI8343
aI11124
aI13905
aI16686
asg323
(lp376
F14.135289192199707
aF18.331549167633057
aF22.243813037872314
aF26.076045036315918
aF29.976580142974854
aF33.630591154098511
aF37.268989086151123
asg325
(lp377
I0
aI278035
aI556070
aI834105
aI1112140
aI1390175
aI1668210
asbaa(lp378
S'test_y_col_norms_max'
p379
ag1
(g306
g3
NtRp380
(dp381
g309
(lp382
I0
aI1
aI2
aI3
aI4
aI5
aI6
asg311
S'This channel came from a layer called "y" of an MLP.\n<class \'pylearn2.models.mlp.Softmax\'>.get_monitoring_channels_from_state did not provide any further documentation for this channel.'
p383
sg312
(lp384
g65
(g66
(I0
tS'b'
tRp385
(I1
(tg69
I00
S'\x00\x00\x00\x00\x00\x00\x00\x00'
tbag65
(g66
(I0
tS'b'
tRp386
(I1
(tg69
I00
S'\t\x91l\xf3\x83p\xc5?'
tbag65
(g66
(I0
tS'b'
tRp387
(I1
(tg69
I00
S'\xbf\x11\x02\xdc\x9e\xf1\xc8?'
tbag65
(g66
(I0
tS'b'
tRp388
(I1
(tg69
I00
S'\x02\x1c,+\xf8D\xc7?'
tbag65
(g66
(I0
tS'b'
tRp389
(I1
(tg69
I00
S'D2\x16\xc6\x80\xd8\xca?'
tbag65
(g66
(I0
tS'b'
tRp390
(I1
(tg69
I00
S'\xb7\xb0&]\x86\xb2\xcc?'
tbag65
(g66
(I0
tS'b'
tRp391
(I1
(tg69
I00
S'[\x85F\xc6@\r\xc9?'
tbasg321
(lp392
I0
aI2781
aI5562
aI8343
aI11124
aI13905
aI16686
asg323
(lp393
F14.135289192199707
aF18.331549167633057
aF22.243813037872314
aF26.076045036315918
aF29.976580142974854
aF33.630591154098511
aF37.268989086151123
asg325
(lp394
I0
aI278035
aI556070
aI834105
aI1112140
aI1390175
aI1668210
asbaa(lp395
S'test_y_nll'
p396
ag1
(g306
g3
NtRp397
(dp398
g309
(lp399
I0
aI1
aI2
aI3
aI4
aI5
aI6
asg311
S'This channel came from a layer called "y" of an MLP.\n<class \'pylearn2.models.mlp.Softmax\'>.get_monitoring_channels_from_state did not provide any further documentation for this channel.'
p400
sg312
(lp401
g65
(g66
(I0
tS'b'
tRp402
(I1
(tg69
I00
S'\xef9\xfa\xfeB.\xe6?'
tbag65
(g66
(I0
tS'b'
tRp403
(I1
(tg69
I00
S"\x8cC\xfd\x8e8'\xf2?"
tbag65
(g66
(I0
tS'b'
tRp404
(I1
(tg69
I00
S'\x8bf\x01\x8d \xf1\xf3?'
tbag65
(g66
(I0
tS'b'
tRp405
(I1
(tg69
I00
S'\xf3\xdaz\x80\xf4\x93\xf2?'
tbag65
(g66
(I0
tS'b'
tRp406
(I1
(tg69
I00
S'\xa6T\xe7!W-\xf4?'
tbag65
(g66
(I0
tS'b'
tRp407
(I1
(tg69
I00
S'6\xb1T\x96J+\xf4?'
tbag65
(g66
(I0
tS'b'
tRp408
(I1
(tg69
I00
S'\xc5\xf3\xf0\x15 \xe4\xf1?'
tbasg321
(lp409
I0
aI2781
aI5562
aI8343
aI11124
aI13905
aI16686
asg323
(lp410
F14.135289192199707
aF18.331549167633057
aF22.243813037872314
aF26.076045036315918
aF29.976580142974854
aF33.630591154098511
aF37.268989086151123
asg325
(lp411
I0
aI278035
aI556070
aI834105
aI1112140
aI1390175
aI1668210
asbaa(lp412
S'test_h0_range_x_max_u'
p413
ag1
(g306
g3
NtRp414
(dp415
g309
(lp416
I0
aI1
aI2
aI3
aI4
aI5
aI6
asg311
S'This channel came from a layer called "h0" of an MLP.\n<class \'pylearn2.models.mlp.Sigmoid\'>.get_monitoring_channels_from_state did not provide any further documentation for this channel.'
p417
sg312
(lp418
g65
(g66
(I0
tS'b'
tRp419
(I1
(tg69
I00
S':#n\xc5\xff\xff\xef?'
tbag65
(g66
(I0
tS'b'
tRp420
(I1
(tg69
I00
S'\x8c\xd5K\xc1\xff\xff\xef?'
tbag65
(g66
(I0
tS'b'
tRp421
(I1
(tg69
I00
S'\x8c\xd5K\xc1\xff\xff\xef?'
tbag65
(g66
(I0
tS'b'
tRp422
(I1
(tg69
I00
S'\x8c\xd5K\xc1\xff\xff\xef?'
tbag65
(g66
(I0
tS'b'
tRp423
(I1
(tg69
I00
S'\x8c\xd5K\xc1\xff\xff\xef?'
tbag65
(g66
(I0
tS'b'
tRp424
(I1
(tg69
I00
S'\x8c\xd5K\xc1\xff\xff\xef?'
tbag65
(g66
(I0
tS'b'
tRp425
(I1
(tg69
I00
S'\x8c\xd5K\xc1\xff\xff\xef?'
tbasg321
(lp426
I0
aI2781
aI5562
aI8343
aI11124
aI13905
aI16686
asg323
(lp427
F14.135289192199707
aF18.331549167633057
aF22.243813037872314
aF26.076045036315918
aF29.976580142974854
aF33.630591154098511
aF37.268989086151123
asg325
(lp428
I0
aI278035
aI556070
aI834105
aI1112140
aI1390175
aI1668210
asbaa(lp429
S'test_h0_range_x_mean_u'
p430
ag1
(g306
g3
NtRp431
(dp432
g309
(lp433
I0
aI1
aI2
aI3
aI4
aI5
aI6
asg311
S'This channel came from a layer called "h0" of an MLP.\n<class \'pylearn2.models.mlp.Sigmoid\'>.get_monitoring_channels_from_state did not provide any further documentation for this channel.'
p434
sg312
(lp435
g65
(g66
(I0
tS'b'
tRp436
(I1
(tg69
I00
S'\x96\x06\x9c\x9a)\xaa\xd9?'
tbag65
(g66
(I0
tS'b'
tRp437
(I1
(tg69
I00
S'J(\xcb\x99)\xaa\xd9?'
tbag65
(g66
(I0
tS'b'
tRp438
(I1
(tg69
I00
S'\x96\xd5\xcd\x99)\xaa\xd9?'
tbag65
(g66
(I0
tS'b'
tRp439
(I1
(tg69
I00
S'\xa3X\xd0\x99)\xaa\xd9?'
tbag65
(g66
(I0
tS'b'
tRp440
(I1
(tg69
I00
S'.\xba\xd2\x99)\xaa\xd9?'
tbag65
(g66
(I0
tS'b'
tRp441
(I1
(tg69
I00
S"M'\xd5\x99)\xaa\xd9?"
tbag65
(g66
(I0
tS'b'
tRp442
(I1
(tg69
I00
S'\xc2\x92\xd7\x99)\xaa\xd9?'
tbasg321
(lp443
I0
aI2781
aI5562
aI8343
aI11124
aI13905
aI16686
asg323
(lp444
F14.135289192199707
aF18.331549167633057
aF22.243813037872314
aF26.076045036315918
aF29.976580142974854
aF33.630591154098511
aF37.268989086151123
asg325
(lp445
I0
aI278035
aI556070
aI834105
aI1112140
aI1390175
aI1668210
asbaa(lp446
S'test_h0_min_x_max_u'
p447
ag1
(g306
g3
NtRp448
(dp449
g309
(lp450
I0
aI1
aI2
aI3
aI4
aI5
aI6
asg311
S'This channel came from a layer called "h0" of an MLP.\n<class \'pylearn2.models.mlp.Sigmoid\'>.get_monitoring_channels_from_state did not provide any further documentation for this channel.'
p451
sg312
(lp452
g65
(g66
(I0
tS'b'
tRp453
(I1
(tg69
I00
S'\x00\x00\x00\x00\x00\x00\xf0?'
tbag65
(g66
(I0
tS'b'
tRp454
(I1
(tg69
I00
S'\x00\x00\x00\x00\x00\x00\xf0?'
tbag65
(g66
(I0
tS'b'
tRp455
(I1
(tg69
I00
S'\x00\x00\x00\x00\x00\x00\xf0?'
tbag65
(g66
(I0
tS'b'
tRp456
(I1
(tg69
I00
S'\x00\x00\x00\x00\x00\x00\xf0?'
tbag65
(g66
(I0
tS'b'
tRp457
(I1
(tg69
I00
S'\x00\x00\x00\x00\x00\x00\xf0?'
tbag65
(g66
(I0
tS'b'
tRp458
(I1
(tg69
I00
S'\x00\x00\x00\x00\x00\x00\xf0?'
tbag65
(g66
(I0
tS'b'
tRp459
(I1
(tg69
I00
S'\x00\x00\x00\x00\x00\x00\xf0?'
tbasg321
(lp460
I0
aI2781
aI5562
aI8343
aI11124
aI13905
aI16686
asg323
(lp461
F14.135289192199707
aF18.331549167633057
aF22.243813037872314
aF26.076045036315918
aF29.976580142974854
aF33.630591154098511
aF37.268989086151123
asg325
(lp462
I0
aI278035
aI556070
aI834105
aI1112140
aI1390175
aI1668210
asbaa(lp463
S'test_h0_max_x_min_u'
p464
ag1
(g306
g3
NtRp465
(dp466
g309
(lp467
I0
aI1
aI2
aI3
aI4
aI5
aI6
asg311
S'This channel came from a layer called "h0" of an MLP.\n<class \'pylearn2.models.mlp.Sigmoid\'>.get_monitoring_channels_from_state did not provide any further documentation for this channel.'
p468
sg312
(lp469
g65
(g66
(I0
tS'b'
tRp470
(I1
(tg69
I00
S'\x8aX\xf3\xd5\xb8\t\xa1?'
tbag65
(g66
(I0
tS'b'
tRp471
(I1
(tg69
I00
S'\x8aX\xf3\xd5\xb8\t\xa1?'
tbag65
(g66
(I0
tS'b'
tRp472
(I1
(tg69
I00
S'\x8aX\xf3\xd5\xb8\t\xa1?'
tbag65
(g66
(I0
tS'b'
tRp473
(I1
(tg69
I00
S'\x8aX\xf3\xd5\xb8\t\xa1?'
tbag65
(g66
(I0
tS'b'
tRp474
(I1
(tg69
I00
S'\x8aX\xf3\xd5\xb8\t\xa1?'
tbag65
(g66
(I0
tS'b'
tRp475
(I1
(tg69
I00
S'\x8aX\xf3\xd5\xb8\t\xa1?'
tbag65
(g66
(I0
tS'b'
tRp476
(I1
(tg69
I00
S'\x8aX\xf3\xd5\xb8\t\xa1?'
tbasg321
(lp477
I0
aI2781
aI5562
aI8343
aI11124
aI13905
aI16686
asg323
(lp478
F14.135289192199707
aF18.331549167633057
aF22.243813037872314
aF26.076045036315918
aF29.976580142974854
aF33.630591154098511
aF37.268989086151123
asg325
(lp479
I0
aI278035
aI556070
aI834105
aI1112140
aI1390175
aI1668210
asbaa(lp480
S'test_h0_row_norms_min'
p481
ag1
(g306
g3
NtRp482
(dp483
g309
(lp484
I0
aI1
aI2
aI3
aI4
aI5
aI6
asg311
S'This channel came from a layer called "h0" of an MLP.\n<class \'pylearn2.models.mlp.Sigmoid\'>.get_monitoring_channels_from_state did not provide any further documentation for this channel.'
p485
sg312
(lp486
g65
(g66
(I0
tS'b'
tRp487
(I1
(tg69
I00
S'`zV\x99\xab\x07\xee?'
tbag65
(g66
(I0
tS'b'
tRp488
(I1
(tg69
I00
S'0\xcf\xa7\xfe\xac\x07\xee?'
tbag65
(g66
(I0
tS'b'
tRp489
(I1
(tg69
I00
S'\x1f$\x9e\xfe\xac\x07\xee?'
tbag65
(g66
(I0
tS'b'
tRp490
(I1
(tg69
I00
S'\xb1\x11\x95\xfe\xac\x07\xee?'
tbag65
(g66
(I0
tS'b'
tRp491
(I1
(tg69
I00
S'4x\x8c\xfe\xac\x07\xee?'
tbag65
(g66
(I0
tS'b'
tRp492
(I1
(tg69
I00
S'\x07\xb5\x83\xfe\xac\x07\xee?'
tbag65
(g66
(I0
tS'b'
tRp493
(I1
(tg69
I00
S'\xf1\xf7z\xfe\xac\x07\xee?'
tbasg321
(lp494
I0
aI2781
aI5562
aI8343
aI11124
aI13905
aI16686
asg323
(lp495
F14.135289192199707
aF18.331549167633057
aF22.243813037872314
aF26.076045036315918
aF29.976580142974854
aF33.630591154098511
aF37.268989086151123
asg325
(lp496
I0
aI278035
aI556070
aI834105
aI1112140
aI1390175
aI1668210
asbaa(lp497
S'test_y_row_norms_max'
p498
ag1
(g306
g3
NtRp499
(dp500
g309
(lp501
I0
aI1
aI2
aI3
aI4
aI5
aI6
asg311
S'This channel came from a layer called "y" of an MLP.\n<class \'pylearn2.models.mlp.Softmax\'>.get_monitoring_channels_from_state did not provide any further documentation for this channel.'
p502
sg312
(lp503
g65
(g66
(I0
tS'b'
tRp504
(I1
(tg69
I00
S'\x00\x00\x00\x00\x00\x00\x00\x00'
tbag65
(g66
(I0
tS'b'
tRp505
(I1
(tg69
I00
S'\xb0\x82`&\xeb(\xbe?'
tbag65
(g66
(I0
tS'b'
tRp506
(I1
(tg69
I00
S'\xa9\xfdz*\xe01\xc2?'
tbag65
(g66
(I0
tS'b'
tRp507
(I1
(tg69
I00
S'\xe37\xe1q\x89\t\xc2?'
tbag65
(g66
(I0
tS'b'
tRp508
(I1
(tg69
I00
S'\x10\xf6r\xe9\xb7\xc1\xc4?'
tbag65
(g66
(I0
tS'b'
tRp509
(I1
(tg69
I00
S'\x9aZa\xaa>\xa9\xc6?'
tbag65
(g66
(I0
tS'b'
tRp510
(I1
(tg69
I00
S'\xfb\xe6(C\\\xd4\xc3?'
tbasg321
(lp511
I0
aI2781
aI5562
aI8343
aI11124
aI13905
aI16686
asg323
(lp512
F14.135289192199707
aF18.331549167633057
aF22.243813037872314
aF26.076045036315918
aF29.976580142974854
aF33.630591154098511
aF37.268989086151123
asg325
(lp513
I0
aI278035
aI556070
aI834105
aI1112140
aI1390175
aI1668210
asbaa(lp514
S'test_y_misclass'
p515
ag1
(g306
g3
NtRp516
(dp517
g309
(lp518
I0
aI1
aI2
aI3
aI4
aI5
aI6
asg311
S'This channel came from a layer called "y" of an MLP.\n<class \'pylearn2.models.mlp.Softmax\'>.get_monitoring_channels_from_state did not provide any further documentation for this channel.'
p519
sg312
(lp520
g65
(g66
(I0
tS'b'
tRp521
(I1
(tg69
I00
S'(\xaf\xa1\xbc\x86\xf2\xba?'
tbag65
(g66
(I0
tS'b'
tRp522
(I1
(tg69
I00
S'\x19\xcak(\xaf\xa1\xec?'
tbag65
(g66
(I0
tS'b'
tRp523
(I1
(tg69
I00
S'\x19\xcak(\xaf\xa1\xec?'
tbag65
(g66
(I0
tS'b'
tRp524
(I1
(tg69
I00
S'\x19\xcak(\xaf\xa1\xec?'
tbag65
(g66
(I0
tS'b'
tRp525
(I1
(tg69
I00
S'\x19\xcak(\xaf\xa1\xec?'
tbag65
(g66
(I0
tS'b'
tRp526
(I1
(tg69
I00
S'\x19\xcak(\xaf\xa1\xec?'
tbag65
(g66
(I0
tS'b'
tRp527
(I1
(tg69
I00
S'\x19\xcak(\xaf\xa1\xec?'
tbasg321
(lp528
I0
aI2781
aI5562
aI8343
aI11124
aI13905
aI16686
asg323
(lp529
F14.135289192199707
aF18.331549167633057
aF22.243813037872314
aF26.076045036315918
aF29.976580142974854
aF33.630591154098511
aF37.268989086151123
asg325
(lp530
I0
aI278035
aI556070
aI834105
aI1112140
aI1390175
aI1668210
asbaa(lp531
S'test_h0_min_x_min_u'
p532
ag1
(g306
g3
NtRp533
(dp534
g309
(lp535
I0
aI1
aI2
aI3
aI4
aI5
aI6
asg311
S'This channel came from a layer called "h0" of an MLP.\n<class \'pylearn2.models.mlp.Sigmoid\'>.get_monitoring_channels_from_state did not provide any further documentation for this channel.'
p536
sg312
(lp537
g65
(g66
(I0
tS'b'
tRp538
(I1
(tg69
I00
S'\xab\x04\x05\x05Z]s7'
tbag65
(g66
(I0
tS'b'
tRp539
(I1
(tg69
I00
S'\x04\x8b\x05\x05Z]s7'
tbag65
(g66
(I0
tS'b'
tRp540
(I1
(tg69
I00
S'\x83#\x06\x05Z]s7'
tbag65
(g66
(I0
tS'b'
tRp541
(I1
(tg69
I00
S'w\xf2\x06\x05Z]s7'
tbag65
(g66
(I0
tS'b'
tRp542
(I1
(tg69
I00
S'\x11\\\x07\x05Z]s7'
tbag65
(g66
(I0
tS'b'
tRp543
(I1
(tg69
I00
S'\xf38\x08\x05Z]s7'
tbag65
(g66
(I0
tS'b'
tRp544
(I1
(tg69
I00
S'\x12y\t\x05Z]s7'
tbasg321
(lp545
I0
aI2781
aI5562
aI8343
aI11124
aI13905
aI16686
asg323
(lp546
F14.135289192199707
aF18.331549167633057
aF22.243813037872314
aF26.076045036315918
aF29.976580142974854
aF33.630591154098511
aF37.268989086151123
asg325
(lp547
I0
aI278035
aI556070
aI834105
aI1112140
aI1390175
aI1668210
asbaa(lp548
S'test_y_mean_max_class'
p549
ag1
(g306
g3
NtRp550
(dp551
g309
(lp552
I0
aI1
aI2
aI3
aI4
aI5
aI6
asg311
S'This channel came from a layer called "y" of an MLP.\n<class \'pylearn2.models.mlp.Softmax\'>.get_monitoring_channels_from_state did not provide any further documentation for this channel.'
p553
sg312
(lp554
g65
(g66
(I0
tS'b'
tRp555
(I1
(tg69
I00
S'\x00\x00\x00\x00\x00\x00\xe0?'
tbag65
(g66
(I0
tS'b'
tRp556
(I1
(tg69
I00
S'\xfb\xce\xbe\x89\xde\x9f\xe6?'
tbag65
(g66
(I0
tS'b'
tRp557
(I1
(tg69
I00
S'C\xa3~\xd3\xde\xbf\xe7?'
tbag65
(g66
(I0
tS'b'
tRp558
(I1
(tg69
I00
S'c\xfbt\xe6\xf6\xe6\xe6?'
tbag65
(g66
(I0
tS'b'
tRp559
(I1
(tg69
I00
S'\x85l\xf4%-\xe2\xe7?'
tbag65
(g66
(I0
tS'b'
tRp560
(I1
(tg69
I00
S'\xae\x9fa\xd6\x89\xe5\xe7?'
tbag65
(g66
(I0
tS'b'
tRp561
(I1
(tg69
I00
S'\xf7\xe8I\xe1(n\xe6?'
tbasg321
(lp562
I0
aI2781
aI5562
aI8343
aI11124
aI13905
aI16686
asg323
(lp563
F14.135289192199707
aF18.331549167633057
aF22.243813037872314
aF26.076045036315918
aF29.976580142974854
aF33.630591154098511
aF37.268989086151123
asg325
(lp564
I0
aI278035
aI556070
aI834105
aI1112140
aI1390175
aI1668210
asbaa(lp565
S'test_h0_row_norms_mean'
p566
ag1
(g306
g3
NtRp567
(dp568
g309
(lp569
I0
aI1
aI2
aI3
aI4
aI5
aI6
asg311
S'This channel came from a layer called "h0" of an MLP.\n<class \'pylearn2.models.mlp.Sigmoid\'>.get_monitoring_channels_from_state did not provide any further documentation for this channel.'
p570
sg312
(lp571
g65
(g66
(I0
tS'b'
tRp572
(I1
(tg69
I00
S'\x96e\xc6\xdb\xe3\x8f\x01@'
tbag65
(g66
(I0
tS'b'
tRp573
(I1
(tg69
I00
S'\xc4\xe1\xabr\xda\x8f\x01@'
tbag65
(g66
(I0
tS'b'
tRp574
(I1
(tg69
I00
S'\x00:\xa9r\xda\x8f\x01@'
tbag65
(g66
(I0
tS'b'
tRp575
(I1
(tg69
I00
S')\xbc\xa6r\xda\x8f\x01@'
tbag65
(g66
(I0
tS'b'
tRp576
(I1
(tg69
I00
S'\x89_\xa4r\xda\x8f\x01@'
tbag65
(g66
(I0
tS'b'
tRp577
(I1
(tg69
I00
S'w\xf7\xa1r\xda\x8f\x01@'
tbag65
(g66
(I0
tS'b'
tRp578
(I1
(tg69
I00
S'\x13\x91\x9fr\xda\x8f\x01@'
tbasg321
(lp579
I0
aI2781
aI5562
aI8343
aI11124
aI13905
aI16686
asg323
(lp580
F14.135289192199707
aF18.331549167633057
aF22.243813037872314
aF26.076045036315918
aF29.976580142974854
aF33.630591154098511
aF37.268989086151123
asg325
(lp581
I0
aI278035
aI556070
aI834105
aI1112140
aI1390175
aI1668210
asbaa(lp582
S'test_h0_col_norms_max'
p583
ag1
(g306
g3
NtRp584
(dp585
g309
(lp586
I0
aI1
aI2
aI3
aI4
aI5
aI6
asg311
S'This channel came from a layer called "h0" of an MLP.\n<class \'pylearn2.models.mlp.Sigmoid\'>.get_monitoring_channels_from_state did not provide any further documentation for this channel.'
p587
sg312
(lp588
g65
(g66
(I0
tS'b'
tRp589
(I1
(tg69
I00
S'\xa5\xa9\xf5,\xb1\xf1\x0b@'
tbag65
(g66
(I0
tS'b'
tRp590
(I1
(tg69
I00
S'\xa5\xa9\xf5,\xb1\xf1\x0b@'
tbag65
(g66
(I0
tS'b'
tRp591
(I1
(tg69
I00
S'\xa5\xa9\xf5,\xb1\xf1\x0b@'
tbag65
(g66
(I0
tS'b'
tRp592
(I1
(tg69
I00
S'\xa7\xa9\xf5,\xb1\xf1\x0b@'
tbag65
(g66
(I0
tS'b'
tRp593
(I1
(tg69
I00
S'\xab\xa9\xf5,\xb1\xf1\x0b@'
tbag65
(g66
(I0
tS'b'
tRp594
(I1
(tg69
I00
S'\xab\xa9\xf5,\xb1\xf1\x0b@'
tbag65
(g66
(I0
tS'b'
tRp595
(I1
(tg69
I00
S'\xad\xa9\xf5,\xb1\xf1\x0b@'
tbasg321
(lp596
I0
aI2781
aI5562
aI8343
aI11124
aI13905
aI16686
asg323
(lp597
F14.135289192199707
aF18.331549167633057
aF22.243813037872314
aF26.076045036315918
aF29.976580142974854
aF33.630591154098511
aF37.268989086151123
asg325
(lp598
I0
aI278035
aI556070
aI834105
aI1112140
aI1390175
aI1668210
asbaa(lp599
S'test_h0_mean_x_mean_u'
p600
ag1
(g306
g3
NtRp601
(dp602
g309
(lp603
I0
aI1
aI2
aI3
aI4
aI5
aI6
asg311
S'This channel came from a layer called "h0" of an MLP.\n<class \'pylearn2.models.mlp.Sigmoid\'>.get_monitoring_channels_from_state did not provide any further documentation for this channel.'
p604
sg312
(lp605
g65
(g66
(I0
tS'b'
tRp606
(I1
(tg69
I00
S"'ST\x1e\x08\xd2\xe3?"
tbag65
(g66
(I0
tS'b'
tRp607
(I1
(tg69
I00
S'\x9a\xc4\x84r^\xd2\xe3?'
tbag65
(g66
(I0
tS'b'
tRp608
(I1
(tg69
I00
S'\x1b\xac\x84r^\xd2\xe3?'
tbag65
(g66
(I0
tS'b'
tRp609
(I1
(tg69
I00
S'<\x95\x84r^\xd2\xe3?'
tbag65
(g66
(I0
tS'b'
tRp610
(I1
(tg69
I00
S'f\x7f\x84r^\xd2\xe3?'
tbag65
(g66
(I0
tS'b'
tRp611
(I1
(tg69
I00
S'Zi\x84r^\xd2\xe3?'
tbag65
(g66
(I0
tS'b'
tRp612
(I1
(tg69
I00
S'\x8aS\x84r^\xd2\xe3?'
tbasg321
(lp613
I0
aI2781
aI5562
aI8343
aI11124
aI13905
aI16686
asg323
(lp614
F14.135289192199707
aF18.331549167633057
aF22.243813037872314
aF26.076045036315918
aF29.976580142974854
aF33.630591154098511
aF37.268989086151123
asg325
(lp615
I0
aI278035
aI556070
aI834105
aI1112140
aI1390175
aI1668210
asbaa(lp616
S'test_y_row_norms_min'
p617
ag1
(g306
g3
NtRp618
(dp619
g309
(lp620
I0
aI1
aI2
aI3
aI4
aI5
aI6
asg311
S'This channel came from a layer called "y" of an MLP.\n<class \'pylearn2.models.mlp.Softmax\'>.get_monitoring_channels_from_state did not provide any further documentation for this channel.'
p621
sg312
(lp622
g65
(g66
(I0
tS'b'
tRp623
(I1
(tg69
I00
S'\x00\x00\x00\x00\x00\x00\x00\x00'
tbag65
(g66
(I0
tS'b'
tRp624
(I1
(tg69
I00
S'\x9a\r\xa6\xc3h\x02\x85?'
tbag65
(g66
(I0
tS'b'
tRp625
(I1
(tg69
I00
S'\x16+\\t\x9bI\x97?'
tbag65
(g66
(I0
tS'b'
tRp626
(I1
(tg69
I00
S'_Y\xe9C\xf1\xf27?'
tbag65
(g66
(I0
tS'b'
tRp627
(I1
(tg69
I00
S'\x8d\xa4P\xdc\xdf\x1f\xa0?'
tbag65
(g66
(I0
tS'b'
tRp628
(I1
(tg69
I00
S'\x1b3\xa4\xff\xf9\xd9\x8f?'
tbag65
(g66
(I0
tS'b'
tRp629
(I1
(tg69
I00
S'\x1f\xb2Q\xe5V\t\x83?'
tbasg321
(lp630
I0
aI2781
aI5562
aI8343
aI11124
aI13905
aI16686
asg323
(lp631
F14.135289192199707
aF18.331549167633057
aF22.243813037872314
aF26.076045036315918
aF29.976580142974854
aF33.630591154098511
aF37.268989086151123
asg325
(lp632
I0
aI278035
aI556070
aI834105
aI1112140
aI1390175
aI1668210
asbaa(lp633
S'test_h0_mean_x_min_u'
p634
ag1
(g306
g3
NtRp635
(dp636
g309
(lp637
I0
aI1
aI2
aI3
aI4
aI5
aI6
asg311
S'This channel came from a layer called "h0" of an MLP.\n<class \'pylearn2.models.mlp.Sigmoid\'>.get_monitoring_channels_from_state did not provide any further documentation for this channel.'
p638
sg312
(lp639
g65
(g66
(I0
tS'b'
tRp640
(I1
(tg69
I00
S'UW^\xb8(\x03b?'
tbag65
(g66
(I0
tS'b'
tRp641
(I1
(tg69
I00
S'UW^\xb8(\x03b?'
tbag65
(g66
(I0
tS'b'
tRp642
(I1
(tg69
I00
S'UW^\xb8(\x03b?'
tbag65
(g66
(I0
tS'b'
tRp643
(I1
(tg69
I00
S'UW^\xb8(\x03b?'
tbag65
(g66
(I0
tS'b'
tRp644
(I1
(tg69
I00
S'UW^\xb8(\x03b?'
tbag65
(g66
(I0
tS'b'
tRp645
(I1
(tg69
I00
S'UW^\xb8(\x03b?'
tbag65
(g66
(I0
tS'b'
tRp646
(I1
(tg69
I00
S'UW^\xb8(\x03b?'
tbasg321
(lp647
I0
aI2781
aI5562
aI8343
aI11124
aI13905
aI16686
asg323
(lp648
F14.135289192199707
aF18.331549167633057
aF22.243813037872314
aF26.076045036315918
aF29.976580142974854
aF33.630591154098511
aF37.268989086151123
asg325
(lp649
I0
aI278035
aI556070
aI834105
aI1112140
aI1390175
aI1668210
asbaa(lp650
S'test_h0_max_x_mean_u'
p651
ag1
(g306
g3
NtRp652
(dp653
g309
(lp654
I0
aI1
aI2
aI3
aI4
aI5
aI6
asg311
S'This channel came from a layer called "h0" of an MLP.\n<class \'pylearn2.models.mlp.Sigmoid\'>.get_monitoring_channels_from_state did not provide any further documentation for this channel.'
p655
sg312
(lp656
g65
(g66
(I0
tS'b'
tRp657
(I1
(tg69
I00
S'\xa07\x7f\x0e\xe5\x0c\xec?'
tbag65
(g66
(I0
tS'b'
tRp658
(I1
(tg69
I00
S'\xa57\x7f\x0e\xe5\x0c\xec?'
tbag65
(g66
(I0
tS'b'
tRp659
(I1
(tg69
I00
S'\xaa7\x7f\x0e\xe5\x0c\xec?'
tbag65
(g66
(I0
tS'b'
tRp660
(I1
(tg69
I00
S'\xb07\x7f\x0e\xe5\x0c\xec?'
tbag65
(g66
(I0
tS'b'
tRp661
(I1
(tg69
I00
S'\xb27\x7f\x0e\xe5\x0c\xec?'
tbag65
(g66
(I0
tS'b'
tRp662
(I1
(tg69
I00
S'\xbb7\x7f\x0e\xe5\x0c\xec?'
tbag65
(g66
(I0
tS'b'
tRp663
(I1
(tg69
I00
S'\xc67\x7f\x0e\xe5\x0c\xec?'
tbasg321
(lp664
I0
aI2781
aI5562
aI8343
aI11124
aI13905
aI16686
asg323
(lp665
F14.135289192199707
aF18.331549167633057
aF22.243813037872314
aF26.076045036315918
aF29.976580142974854
aF33.630591154098511
aF37.268989086151123
asg325
(lp666
I0
aI278035
aI556070
aI834105
aI1112140
aI1390175
aI1668210
asbaa(lp667
S'test_y_col_norms_mean'
p668
ag1
(g306
g3
NtRp669
(dp670
g309
(lp671
I0
aI1
aI2
aI3
aI4
aI5
aI6
asg311
S'This channel came from a layer called "y" of an MLP.\n<class \'pylearn2.models.mlp.Softmax\'>.get_monitoring_channels_from_state did not provide any further documentation for this channel.'
p672
sg312
(lp673
g65
(g66
(I0
tS'b'
tRp674
(I1
(tg69
I00
S'\x00\x00\x00\x00\x00\x00\x00\x00'
tbag65
(g66
(I0
tS'b'
tRp675
(I1
(tg69
I00
S'\xff\x90l\xf3\x83p\xc5?'
tbag65
(g66
(I0
tS'b'
tRp676
(I1
(tg69
I00
S'\xbd\x11\x02\xdc\x9e\xf1\xc8?'
tbag65
(g66
(I0
tS'b'
tRp677
(I1
(tg69
I00
S'\x00\x1c,+\xf8D\xc7?'
tbag65
(g66
(I0
tS'b'
tRp678
(I1
(tg69
I00
S'B2\x16\xc6\x80\xd8\xca?'
tbag65
(g66
(I0
tS'b'
tRp679
(I1
(tg69
I00
S'\xb0\xb0&]\x86\xb2\xcc?'
tbag65
(g66
(I0
tS'b'
tRp680
(I1
(tg69
I00
S'S\x85F\xc6@\r\xc9?'
tbasg321
(lp681
I0
aI2781
aI5562
aI8343
aI11124
aI13905
aI16686
asg323
(lp682
F14.135289192199707
aF18.331549167633057
aF22.243813037872314
aF26.076045036315918
aF29.976580142974854
aF33.630591154098511
aF37.268989086151123
asg325
(lp683
I0
aI278035
aI556070
aI834105
aI1112140
aI1390175
aI1668210
asbaa(lp684
S'test_y_max_max_class'
p685
ag1
(g306
g3
NtRp686
(dp687
g309
(lp688
I0
aI1
aI2
aI3
aI4
aI5
aI6
asg311
S'This channel came from a layer called "y" of an MLP.\n<class \'pylearn2.models.mlp.Softmax\'>.get_monitoring_channels_from_state did not provide any further documentation for this channel.'
p689
sg312
(lp690
g65
(g66
(I0
tS'b'
tRp691
(I1
(tg69
I00
S'\x00\x00\x00\x00\x00\x00\xe0?'
tbag65
(g66
(I0
tS'b'
tRp692
(I1
(tg69
I00
S';;\x13\xe4\r\xd0\xe6?'
tbag65
(g66
(I0
tS'b'
tRp693
(I1
(tg69
I00
S'\x10x\xc4\x82\xc2\xf3\xe7?'
tbag65
(g66
(I0
tS'b'
tRp694
(I1
(tg69
I00
S'\x19X\xb2\x88\xc1;\xe7?'
tbag65
(g66
(I0
tS'b'
tRp695
(I1
(tg69
I00
S'\x1d\xa3\xae\x16v4\xe8?'
tbag65
(g66
(I0
tS'b'
tRp696
(I1
(tg69
I00
S'\x98\x8bv\xdc\x13m\xe8?'
tbag65
(g66
(I0
tS'b'
tRp697
(I1
(tg69
I00
S'P\xb0\xcb\xb2\xb2\xd4\xe6?'
tbasg321
(lp698
I0
aI2781
aI5562
aI8343
aI11124
aI13905
aI16686
asg323
(lp699
F14.135289192199707
aF18.331549167633057
aF22.243813037872314
aF26.076045036315918
aF29.976580142974854
aF33.630591154098511
aF37.268989086151123
asg325
(lp700
I0
aI278035
aI556070
aI834105
aI1112140
aI1390175
aI1668210
asbaa(lp701
S'test_h0_col_norms_mean'
p702
ag1
(g306
g3
NtRp703
(dp704
g309
(lp705
I0
aI1
aI2
aI3
aI4
aI5
aI6
asg311
S'This channel came from a layer called "h0" of an MLP.\n<class \'pylearn2.models.mlp.Sigmoid\'>.get_monitoring_channels_from_state did not provide any further documentation for this channel.'
p706
sg312
(lp707
g65
(g66
(I0
tS'b'
tRp708
(I1
(tg69
I00
S'w\xcc\xe7\x02\xfe\xb4\x01@'
tbag65
(g66
(I0
tS'b'
tRp709
(I1
(tg69
I00
S'\x12v\xc9\x17\xfe\xb4\x01@'
tbag65
(g66
(I0
tS'b'
tRp710
(I1
(tg69
I00
S'G\x94\xc9\x17\xfe\xb4\x01@'
tbag65
(g66
(I0
tS'b'
tRp711
(I1
(tg69
I00
S'\xa0\xb0\xc9\x17\xfe\xb4\x01@'
tbag65
(g66
(I0
tS'b'
tRp712
(I1
(tg69
I00
S'\x81\xcb\xc9\x17\xfe\xb4\x01@'
tbag65
(g66
(I0
tS'b'
tRp713
(I1
(tg69
I00
S'\xe4\xe6\xc9\x17\xfe\xb4\x01@'
tbag65
(g66
(I0
tS'b'
tRp714
(I1
(tg69
I00
S'6\x02\xca\x17\xfe\xb4\x01@'
tbasg321
(lp715
I0
aI2781
aI5562
aI8343
aI11124
aI13905
aI16686
asg323
(lp716
F14.135289192199707
aF18.331549167633057
aF22.243813037872314
aF26.076045036315918
aF29.976580142974854
aF33.630591154098511
aF37.268989086151123
asg325
(lp717
I0
aI278035
aI556070
aI834105
aI1112140
aI1390175
aI1668210
asbaa(lp718
S'test_y_min_max_class'
p719
ag1
(g306
g3
NtRp720
(dp721
g309
(lp722
I0
aI1
aI2
aI3
aI4
aI5
aI6
asg311
S'This channel came from a layer called "y" of an MLP.\n<class \'pylearn2.models.mlp.Softmax\'>.get_monitoring_channels_from_state did not provide any further documentation for this channel.'
p723
sg312
(lp724
g65
(g66
(I0
tS'b'
tRp725
(I1
(tg69
I00
S'\x00\x00\x00\x00\x00\x00\xe0?'
tbag65
(g66
(I0
tS'b'
tRp726
(I1
(tg69
I00
S'h\x91\xb9G\xa3k\xe6?'
tbag65
(g66
(I0
tS'b'
tRp727
(I1
(tg69
I00
S'\xa5\xea\x94.\x0f\x7f\xe7?'
tbag65
(g66
(I0
tS'b'
tRp728
(I1
(tg69
I00
S'L\xbaUxd\x92\xe6?'
tbag65
(g66
(I0
tS'b'
tRp729
(I1
(tg69
I00
S'R\xcb\x1f>\xd7\x98\xe7?'
tbag65
(g66
(I0
tS'b'
tRp730
(I1
(tg69
I00
S'\xdc7\x1c)3r\xe7?'
tbag65
(g66
(I0
tS'b'
tRp731
(I1
(tg69
I00
S'(\xf5\xe2\xf2j\xa3\xe5?'
tbasg321
(lp732
I0
aI2781
aI5562
aI8343
aI11124
aI13905
aI16686
asg323
(lp733
F14.135289192199707
aF18.331549167633057
aF22.243813037872314
aF26.076045036315918
aF29.976580142974854
aF33.630591154098511
aF37.268989086151123
asg325
(lp734
I0
aI278035
aI556070
aI834105
aI1112140
aI1390175
aI1668210
asbaa(lp735
S'test_y_row_norms_mean'
p736
ag1
(g306
g3
NtRp737
(dp738
g309
(lp739
I0
aI1
aI2
aI3
aI4
aI5
aI6
asg311
S'This channel came from a layer called "y" of an MLP.\n<class \'pylearn2.models.mlp.Softmax\'>.get_monitoring_channels_from_state did not provide any further documentation for this channel.'
p740
sg312
(lp741
g65
(g66
(I0
tS'b'
tRp742
(I1
(tg69
I00
S'\x00\x00\x00\x00\x00\x00\x00\x00'
tbag65
(g66
(I0
tS'b'
tRp743
(I1
(tg69
I00
S'\xbb/\n\x1e\xd2\xb1\xae?'
tbag65
(g66
(I0
tS'b'
tRp744
(I1
(tg69
I00
S'N\xa0\xe1\xe4\xe8\x1d\xb3?'
tbag65
(g66
(I0
tS'b'
tRp745
(I1
(tg69
I00
S'je\x15\xcb\xdf\xd5\xb1?'
tbag65
(g66
(I0
tS'b'
tRp746
(I1
(tg69
I00
S'T\x90\xb5\xc1\xe8\xcb\xb5?'
tbag65
(g66
(I0
tS'b'
tRp747
(I1
(tg69
I00
S']\x82\xcd\r\xdc\xea\xb6?'
tbag65
(g66
(I0
tS'b'
tRp748
(I1
(tg69
I00
S'3\x05\xb0\xa9\xc1\x98\xb3?'
tbasg321
(lp749
I0
aI2781
aI5562
aI8343
aI11124
aI13905
aI16686
asg323
(lp750
F14.135289192199707
aF18.331549167633057
aF22.243813037872314
aF26.076045036315918
aF29.976580142974854
aF33.630591154098511
aF37.268989086151123
asg325
(lp751
I0
aI278035
aI556070
aI834105
aI1112140
aI1390175
aI1668210
asbaa(lp752
S'test_h0_row_norms_max'
p753
ag1
(g306
g3
NtRp754
(dp755
g309
(lp756
I0
aI1
aI2
aI3
aI4
aI5
aI6
asg311
S'This channel came from a layer called "h0" of an MLP.\n<class \'pylearn2.models.mlp.Sigmoid\'>.get_monitoring_channels_from_state did not provide any further documentation for this channel.'
p757
sg312
(lp758
g65
(g66
(I0
tS'b'
tRp759
(I1
(tg69
I00
S'@+p\x95|f\x08@'
tbag65
(g66
(I0
tS'b'
tRp760
(I1
(tg69
I00
S'\xf4,<\xda}f\x08@'
tbag65
(g66
(I0
tS'b'
tRp761
(I1
(tg69
I00
S'\x99,<\xda}f\x08@'
tbag65
(g66
(I0
tS'b'
tRp762
(I1
(tg69
I00
S' ,<\xda}f\x08@'
tbag65
(g66
(I0
tS'b'
tRp763
(I1
(tg69
I00
S'\xe1+<\xda}f\x08@'
tbag65
(g66
(I0
tS'b'
tRp764
(I1
(tg69
I00
S'Z+<\xda}f\x08@'
tbag65
(g66
(I0
tS'b'
tRp765
(I1
(tg69
I00
S'\x9b*<\xda}f\x08@'
tbasg321
(lp766
I0
aI2781
aI5562
aI8343
aI11124
aI13905
aI16686
asg323
(lp767
F14.135289192199707
aF18.331549167633057
aF22.243813037872314
aF26.076045036315918
aF29.976580142974854
aF33.630591154098511
aF37.268989086151123
asg325
(lp768
I0
aI278035
aI556070
aI834105
aI1112140
aI1390175
aI1668210
asbaa(lp769
S'test_h0_max_x_max_u'
p770
ag1
(g306
g3
NtRp771
(dp772
g309
(lp773
I0
aI1
aI2
aI3
aI4
aI5
aI6
asg311
S'This channel came from a layer called "h0" of an MLP.\n<class \'pylearn2.models.mlp.Sigmoid\'>.get_monitoring_channels_from_state did not provide any further documentation for this channel.'
p774
sg312
(lp775
g65
(g66
(I0
tS'b'
tRp776
(I1
(tg69
I00
S'\x00\x00\x00\x00\x00\x00\xf0?'
tbag65
(g66
(I0
tS'b'
tRp777
(I1
(tg69
I00
S'\x00\x00\x00\x00\x00\x00\xf0?'
tbag65
(g66
(I0
tS'b'
tRp778
(I1
(tg69
I00
S'\x00\x00\x00\x00\x00\x00\xf0?'
tbag65
(g66
(I0
tS'b'
tRp779
(I1
(tg69
I00
S'\x00\x00\x00\x00\x00\x00\xf0?'
tbag65
(g66
(I0
tS'b'
tRp780
(I1
(tg69
I00
S'\x00\x00\x00\x00\x00\x00\xf0?'
tbag65
(g66
(I0
tS'b'
tRp781
(I1
(tg69
I00
S'\x00\x00\x00\x00\x00\x00\xf0?'
tbag65
(g66
(I0
tS'b'
tRp782
(I1
(tg69
I00
S'\x00\x00\x00\x00\x00\x00\xf0?'
tbasg321
(lp783
I0
aI2781
aI5562
aI8343
aI11124
aI13905
aI16686
asg323
(lp784
F14.135289192199707
aF18.331549167633057
aF22.243813037872314
aF26.076045036315918
aF29.976580142974854
aF33.630591154098511
aF37.268989086151123
asg325
(lp785
I0
aI278035
aI556070
aI834105
aI1112140
aI1390175
aI1668210
asbaa(lp786
S'test_y_col_norms_min'
p787
ag1
(g306
g3
NtRp788
(dp789
g309
(lp790
I0
aI1
aI2
aI3
aI4
aI5
aI6
asg311
S'This channel came from a layer called "y" of an MLP.\n<class \'pylearn2.models.mlp.Softmax\'>.get_monitoring_channels_from_state did not provide any further documentation for this channel.'
p791
sg312
(lp792
g65
(g66
(I0
tS'b'
tRp793
(I1
(tg69
I00
S'\x00\x00\x00\x00\x00\x00\x00\x00'
tbag65
(g66
(I0
tS'b'
tRp794
(I1
(tg69
I00
S'\xf6\x90l\xf3\x83p\xc5?'
tbag65
(g66
(I0
tS'b'
tRp795
(I1
(tg69
I00
S'\xb9\x11\x02\xdc\x9e\xf1\xc8?'
tbag65
(g66
(I0
tS'b'
tRp796
(I1
(tg69
I00
S'\xfc\x1b,+\xf8D\xc7?'
tbag65
(g66
(I0
tS'b'
tRp797
(I1
(tg69
I00
S'A2\x16\xc6\x80\xd8\xca?'
tbag65
(g66
(I0
tS'b'
tRp798
(I1
(tg69
I00
S'\xa8\xb0&]\x86\xb2\xcc?'
tbag65
(g66
(I0
tS'b'
tRp799
(I1
(tg69
I00
S'J\x85F\xc6@\r\xc9?'
tbasg321
(lp800
I0
aI2781
aI5562
aI8343
aI11124
aI13905
aI16686
asg323
(lp801
F14.135289192199707
aF18.331549167633057
aF22.243813037872314
aF26.076045036315918
aF29.976580142974854
aF33.630591154098511
aF37.268989086151123
asg325
(lp802
I0
aI278035
aI556070
aI834105
aI1112140
aI1390175
aI1668210
asbaa(lp803
S'test_h0_col_norms_min'
p804
ag1
(g306
g3
NtRp805
(dp806
g309
(lp807
I0
aI1
aI2
aI3
aI4
aI5
aI6
asg311
S'This channel came from a layer called "h0" of an MLP.\n<class \'pylearn2.models.mlp.Sigmoid\'>.get_monitoring_channels_from_state did not provide any further documentation for this channel.'
p808
sg312
(lp809
g65
(g66
(I0
tS'b'
tRp810
(I1
(tg69
I00
S'\xe3\x00?"L\xbd\xf2?'
tbag65
(g66
(I0
tS'b'
tRp811
(I1
(tg69
I00
S'\xe3\x00?"L\xbd\xf2?'
tbag65
(g66
(I0
tS'b'
tRp812
(I1
(tg69
I00
S'\xe3\x00?"L\xbd\xf2?'
tbag65
(g66
(I0
tS'b'
tRp813
(I1
(tg69
I00
S'\xe3\x00?"L\xbd\xf2?'
tbag65
(g66
(I0
tS'b'
tRp814
(I1
(tg69
I00
S'\xe3\x00?"L\xbd\xf2?'
tbag65
(g66
(I0
tS'b'
tRp815
(I1
(tg69
I00
S'\xe3\x00?"L\xbd\xf2?'
tbag65
(g66
(I0
tS'b'
tRp816
(I1
(tg69
I00
S'\xe3\x00?"L\xbd\xf2?'
tbasg321
(lp817
I0
aI2781
aI5562
aI8343
aI11124
aI13905
aI16686
asg323
(lp818
F14.135289192199707
aF18.331549167633057
aF22.243813037872314
aF26.076045036315918
aF29.976580142974854
aF33.630591154098511
aF37.268989086151123
asg325
(lp819
I0
aI278035
aI556070
aI834105
aI1112140
aI1390175
aI1668210
asbaa(lp820
S'train_objective'
p821
ag1
(g306
g3
NtRp822
(dp823
g309
(lp824
I0
aI1
aI2
aI3
aI4
aI5
aI6
asg311
Nsg312
(lp825
g65
(g66
(I0
tS'b'
tRp826
(I1
(tg69
I00
S'\xa8;\xfa\xfeB.\xe6?'
tbag65
(g66
(I0
tS'b'
tRp827
(I1
(tg69
I00
S'\x90[`p\xe9\x9d\xe2?'
tbag65
(g66
(I0
tS'b'
tRp828
(I1
(tg69
I00
S'h\xe1\x00r;\x91\xe2?'
tbag65
(g66
(I0
tS'b'
tRp829
(I1
(tg69
I00
S'V\xc0\x9aW\x84\x97\xe2?'
tbag65
(g66
(I0
tS'b'
tRp830
(I1
(tg69
I00
S'*S\xd4h\xde\x91\xe2?'
tbag65
(g66
(I0
tS'b'
tRp831
(I1
(tg69
I00
S'\xf4\xc0%\xfa\x90\x93\xe2?'
tbag65
(g66
(I0
tS'b'
tRp832
(I1
(tg69
I00
S'%B\x99fJ\xaf\xe2?'
tbasg321
(lp833
I0
aI2781
aI5562
aI8343
aI11124
aI13905
aI16686
asg323
(lp834
F14.135289192199707
aF18.331549167633057
aF22.243813037872314
aF26.076045036315918
aF29.976580142974854
aF33.630591154098511
aF37.268989086151123
asg325
(lp835
I0
aI278035
aI556070
aI834105
aI1112140
aI1390175
aI1668210
asbaa(lp836
S'train_h0_range_x_min_u'
p837
ag1
(g306
g3
NtRp838
(dp839
g309
(lp840
I0
aI1
aI2
aI3
aI4
aI5
aI6
asg311
g332
sg312
(lp841
g65
(g66
(I0
tS'b'
tRp842
(I1
(tg69
I00
S'\x00\x00\x00\x00\x00\x00\x00\x00'
tbag65
(g66
(I0
tS'b'
tRp843
(I1
(tg69
I00
S'\x00\x00\x00\x00\x00\x00\x00\x00'
tbag65
(g66
(I0
tS'b'
tRp844
(I1
(tg69
I00
S'\x00\x00\x00\x00\x00\x00\x00\x00'
tbag65
(g66
(I0
tS'b'
tRp845
(I1
(tg69
I00
S'\x00\x00\x00\x00\x00\x00\x00\x00'
tbag65
(g66
(I0
tS'b'
tRp846
(I1
(tg69
I00
S'\x00\x00\x00\x00\x00\x00\x00\x00'
tbag65
(g66
(I0
tS'b'
tRp847
(I1
(tg69
I00
S'\x00\x00\x00\x00\x00\x00\x00\x00'
tbag65
(g66
(I0
tS'b'
tRp848
(I1
(tg69
I00
S'\x00\x00\x00\x00\x00\x00\x00\x00'
tbasg321
(lp849
I0
aI2781
aI5562
aI8343
aI11124
aI13905
aI16686
asg323
(lp850
F14.135289192199707
aF18.331549167633057
aF22.243813037872314
aF26.076045036315918
aF29.976580142974854
aF33.630591154098511
aF37.268989086151123
asg325
(lp851
I0
aI278035
aI556070
aI834105
aI1112140
aI1390175
aI1668210
asbaa(lp852
S'train_h0_min_x_mean_u'
p853
ag1
(g306
g3
NtRp854
(dp855
g309
(lp856
I0
aI1
aI2
aI3
aI4
aI5
aI6
asg311
g349
sg312
(lp857
g65
(g66
(I0
tS'b'
tRp858
(I1
(tg69
I00
S'\xca\x16\x8b\xf1\xf6c\xdd?'
tbag65
(g66
(I0
tS'b'
tRp859
(I1
(tg69
I00
S'\xca\x16\x8b\xf1\xf6c\xdd?'
tbag65
(g66
(I0
tS'b'
tRp860
(I1
(tg69
I00
S'\xca\x16\x8b\xf1\xf6c\xdd?'
tbag65
(g66
(I0
tS'b'
tRp861
(I1
(tg69
I00
S'\xca\x16\x8b\xf1\xf6c\xdd?'
tbag65
(g66
(I0
tS'b'
tRp862
(I1
(tg69
I00
S'\xca\x16\x8b\xf1\xf6c\xdd?'
tbag65
(g66
(I0
tS'b'
tRp863
(I1
(tg69
I00
S'\xca\x16\x8b\xf1\xf6c\xdd?'
tbag65
(g66
(I0
tS'b'
tRp864
(I1
(tg69
I00
S'\xca\x16\x8b\xf1\xf6c\xdd?'
tbasg321
(lp865
I0
aI2781
aI5562
aI8343
aI11124
aI13905
aI16686
asg323
(lp866
F14.135289192199707
aF18.331549167633057
aF22.243813037872314
aF26.076045036315918
aF29.976580142974854
aF33.630591154098511
aF37.268989086151123
asg325
(lp867
I0
aI278035
aI556070
aI834105
aI1112140
aI1390175
aI1668210
asbaa(lp868
S'train_h0_mean_x_max_u'
p869
ag1
(g306
g3
NtRp870
(dp871
g309
(lp872
I0
aI1
aI2
aI3
aI4
aI5
aI6
asg311
g366
sg312
(lp873
g65
(g66
(I0
tS'b'
tRp874
(I1
(tg69
I00
S'\x8c\xfd\xff\xff\xff\xff\xef?'
tbag65
(g66
(I0
tS'b'
tRp875
(I1
(tg69
I00
S'\x8c\xfd\xff\xff\xff\xff\xef?'
tbag65
(g66
(I0
tS'b'
tRp876
(I1
(tg69
I00
S'\x8c\xfd\xff\xff\xff\xff\xef?'
tbag65
(g66
(I0
tS'b'
tRp877
(I1
(tg69
I00
S'\x8c\xfd\xff\xff\xff\xff\xef?'
tbag65
(g66
(I0
tS'b'
tRp878
(I1
(tg69
I00
S'\x8c\xfd\xff\xff\xff\xff\xef?'
tbag65
(g66
(I0
tS'b'
tRp879
(I1
(tg69
I00
S'\x8c\xfd\xff\xff\xff\xff\xef?'
tbag65
(g66
(I0
tS'b'
tRp880
(I1
(tg69
I00
S'\x8c\xfd\xff\xff\xff\xff\xef?'
tbasg321
(lp881
I0
aI2781
aI5562
aI8343
aI11124
aI13905
aI16686
asg323
(lp882
F14.135289192199707
aF18.331549167633057
aF22.243813037872314
aF26.076045036315918
aF29.976580142974854
aF33.630591154098511
aF37.268989086151123
asg325
(lp883
I0
aI278035
aI556070
aI834105
aI1112140
aI1390175
aI1668210
asbaa(lp884
S'train_y_col_norms_max'
p885
ag1
(g306
g3
NtRp886
(dp887
g309
(lp888
I0
aI1
aI2
aI3
aI4
aI5
aI6
asg311
g383
sg312
(lp889
g65
(g66
(I0
tS'b'
tRp890
(I1
(tg69
I00
S'\x00\x00\x00\x00\x00\x00\x00\x00'
tbag65
(g66
(I0
tS'b'
tRp891
(I1
(tg69
I00
S'\xaf\x90l\xf3\x83p\xc5?'
tbag65
(g66
(I0
tS'b'
tRp892
(I1
(tg69
I00
S'\xce\x12\x02\xdc\x9e\xf1\xc8?'
tbag65
(g66
(I0
tS'b'
tRp893
(I1
(tg69
I00
S'\xdc\x1b,+\xf8D\xc7?'
tbag65
(g66
(I0
tS'b'
tRp894
(I1
(tg69
I00
S'\xe32\x16\xc6\x80\xd8\xca?'
tbag65
(g66
(I0
tS'b'
tRp895
(I1
(tg69
I00
S'V\xaf&]\x86\xb2\xcc?'
tbag65
(g66
(I0
tS'b'
tRp896
(I1
(tg69
I00
S'\xba\x83F\xc6@\r\xc9?'
tbasg321
(lp897
I0
aI2781
aI5562
aI8343
aI11124
aI13905
aI16686
asg323
(lp898
F14.135289192199707
aF18.331549167633057
aF22.243813037872314
aF26.076045036315918
aF29.976580142974854
aF33.630591154098511
aF37.268989086151123
asg325
(lp899
I0
aI278035
aI556070
aI834105
aI1112140
aI1390175
aI1668210
asbaa(lp900
S'train_y_nll'
p901
ag1
(g306
g3
NtRp902
(dp903
g309
(lp904
I0
aI1
aI2
aI3
aI4
aI5
aI6
asg311
g400
sg312
(lp905
g65
(g66
(I0
tS'b'
tRp906
(I1
(tg69
I00
S'\xa8;\xfa\xfeB.\xe6?'
tbag65
(g66
(I0
tS'b'
tRp907
(I1
(tg69
I00
S'\x90[`p\xe9\x9d\xe2?'
tbag65
(g66
(I0
tS'b'
tRp908
(I1
(tg69
I00
S'h\xe1\x00r;\x91\xe2?'
tbag65
(g66
(I0
tS'b'
tRp909
(I1
(tg69
I00
S'V\xc0\x9aW\x84\x97\xe2?'
tbag65
(g66
(I0
tS'b'
tRp910
(I1
(tg69
I00
S'*S\xd4h\xde\x91\xe2?'
tbag65
(g66
(I0
tS'b'
tRp911
(I1
(tg69
I00
S'\xf4\xc0%\xfa\x90\x93\xe2?'
tbag65
(g66
(I0
tS'b'
tRp912
(I1
(tg69
I00
S'%B\x99fJ\xaf\xe2?'
tbasg321
(lp913
I0
aI2781
aI5562
aI8343
aI11124
aI13905
aI16686
asg323
(lp914
F14.135289192199707
aF18.331549167633057
aF22.243813037872314
aF26.076045036315918
aF29.976580142974854
aF33.630591154098511
aF37.268989086151123
asg325
(lp915
I0
aI278035
aI556070
aI834105
aI1112140
aI1390175
aI1668210
asbaa(lp916
S'train_h0_range_x_max_u'
p917
ag1
(g306
g3
NtRp918
(dp919
g309
(lp920
I0
aI1
aI2
aI3
aI4
aI5
aI6
asg311
g417
sg312
(lp921
g65
(g66
(I0
tS'b'
tRp922
(I1
(tg69
I00
S'\x8c\xfd\xff\xff\xff\xff\xef?'
tbag65
(g66
(I0
tS'b'
tRp923
(I1
(tg69
I00
S'\x8c\xfd\xff\xff\xff\xff\xef?'
tbag65
(g66
(I0
tS'b'
tRp924
(I1
(tg69
I00
S'\x8c\xfd\xff\xff\xff\xff\xef?'
tbag65
(g66
(I0
tS'b'
tRp925
(I1
(tg69
I00
S'\x8c\xfd\xff\xff\xff\xff\xef?'
tbag65
(g66
(I0
tS'b'
tRp926
(I1
(tg69
I00
S'\x8c\xfd\xff\xff\xff\xff\xef?'
tbag65
(g66
(I0
tS'b'
tRp927
(I1
(tg69
I00
S'\x8c\xfd\xff\xff\xff\xff\xef?'
tbag65
(g66
(I0
tS'b'
tRp928
(I1
(tg69
I00
S'\x8c\xfd\xff\xff\xff\xff\xef?'
tbasg321
(lp929
I0
aI2781
aI5562
aI8343
aI11124
aI13905
aI16686
asg323
(lp930
F14.135289192199707
aF18.331549167633057
aF22.243813037872314
aF26.076045036315918
aF29.976580142974854
aF33.630591154098511
aF37.268989086151123
asg325
(lp931
I0
aI278035
aI556070
aI834105
aI1112140
aI1390175
aI1668210
asbaa(lp932
S'train_h0_range_x_mean_u'
p933
ag1
(g306
g3
NtRp934
(dp935
g309
(lp936
I0
aI1
aI2
aI3
aI4
aI5
aI6
asg311
g434
sg312
(lp937
g65
(g66
(I0
tS'b'
tRp938
(I1
(tg69
I00
S'\x11\x93r\x93Wr\xd8?'
tbag65
(g66
(I0
tS'b'
tRp939
(I1
(tg69
I00
S'\x11\x93r\x93Wr\xd8?'
tbag65
(g66
(I0
tS'b'
tRp940
(I1
(tg69
I00
S'\x11\x93r\x93Wr\xd8?'
tbag65
(g66
(I0
tS'b'
tRp941
(I1
(tg69
I00
S'\x11\x93r\x93Wr\xd8?'
tbag65
(g66
(I0
tS'b'
tRp942
(I1
(tg69
I00
S'\x11\x93r\x93Wr\xd8?'
tbag65
(g66
(I0
tS'b'
tRp943
(I1
(tg69
I00
S'\x11\x93r\x93Wr\xd8?'
tbag65
(g66
(I0
tS'b'
tRp944
(I1
(tg69
I00
S'\x11\x93r\x93Wr\xd8?'
tbasg321
(lp945
I0
aI2781
aI5562
aI8343
aI11124
aI13905
aI16686
asg323
(lp946
F14.135289192199707
aF18.331549167633057
aF22.243813037872314
aF26.076045036315918
aF29.976580142974854
aF33.630591154098511
aF37.268989086151123
asg325
(lp947
I0
aI278035
aI556070
aI834105
aI1112140
aI1390175
aI1668210
asbaa(lp948
S'train_h0_min_x_max_u'
p949
ag1
(g306
g3
NtRp950
(dp951
g309
(lp952
I0
aI1
aI2
aI3
aI4
aI5
aI6
asg311
g451
sg312
(lp953
g65
(g66
(I0
tS'b'
tRp954
(I1
(tg69
I00
S'\x8c\xfd\xff\xff\xff\xff\xef?'
tbag65
(g66
(I0
tS'b'
tRp955
(I1
(tg69
I00
S'\x8c\xfd\xff\xff\xff\xff\xef?'
tbag65
(g66
(I0
tS'b'
tRp956
(I1
(tg69
I00
S'\x8c\xfd\xff\xff\xff\xff\xef?'
tbag65
(g66
(I0
tS'b'
tRp957
(I1
(tg69
I00
S'\x8c\xfd\xff\xff\xff\xff\xef?'
tbag65
(g66
(I0
tS'b'
tRp958
(I1
(tg69
I00
S'\x8c\xfd\xff\xff\xff\xff\xef?'
tbag65
(g66
(I0
tS'b'
tRp959
(I1
(tg69
I00
S'\x8c\xfd\xff\xff\xff\xff\xef?'
tbag65
(g66
(I0
tS'b'
tRp960
(I1
(tg69
I00
S'\x8c\xfd\xff\xff\xff\xff\xef?'
tbasg321
(lp961
I0
aI2781
aI5562
aI8343
aI11124
aI13905
aI16686
asg323
(lp962
F14.135289192199707
aF18.331549167633057
aF22.243813037872314
aF26.076045036315918
aF29.976580142974854
aF33.630591154098511
aF37.268989086151123
asg325
(lp963
I0
aI278035
aI556070
aI834105
aI1112140
aI1390175
aI1668210
asbaa(lp964
S'train_h0_max_x_min_u'
p965
ag1
(g306
g3
NtRp966
(dp967
g309
(lp968
I0
aI1
aI2
aI3
aI4
aI5
aI6
asg311
g468
sg312
(lp969
g65
(g66
(I0
tS'b'
tRp970
(I1
(tg69
I00
S"o'\xaa`]\xe3\x93?"
tbag65
(g66
(I0
tS'b'
tRp971
(I1
(tg69
I00
S"o'\xaa`]\xe3\x93?"
tbag65
(g66
(I0
tS'b'
tRp972
(I1
(tg69
I00
S"o'\xaa`]\xe3\x93?"
tbag65
(g66
(I0
tS'b'
tRp973
(I1
(tg69
I00
S"o'\xaa`]\xe3\x93?"
tbag65
(g66
(I0
tS'b'
tRp974
(I1
(tg69
I00
S"o'\xaa`]\xe3\x93?"
tbag65
(g66
(I0
tS'b'
tRp975
(I1
(tg69
I00
S"o'\xaa`]\xe3\x93?"
tbag65
(g66
(I0
tS'b'
tRp976
(I1
(tg69
I00
S"o'\xaa`]\xe3\x93?"
tbasg321
(lp977
I0
aI2781
aI5562
aI8343
aI11124
aI13905
aI16686
asg323
(lp978
F14.135289192199707
aF18.331549167633057
aF22.243813037872314
aF26.076045036315918
aF29.976580142974854
aF33.630591154098511
aF37.268989086151123
asg325
(lp979
I0
aI278035
aI556070
aI834105
aI1112140
aI1390175
aI1668210
asbaa(lp980
S'train_h0_row_norms_min'
p981
ag1
(g306
g3
NtRp982
(dp983
g309
(lp984
I0
aI1
aI2
aI3
aI4
aI5
aI6
asg311
g485
sg312
(lp985
g65
(g66
(I0
tS'b'
tRp986
(I1
(tg69
I00
S'\xf6{V\x99\xab\x07\xee?'
tbag65
(g66
(I0
tS'b'
tRp987
(I1
(tg69
I00
S'm\xd0\xa7\xfe\xac\x07\xee?'
tbag65
(g66
(I0
tS'b'
tRp988
(I1
(tg69
I00
S'\xcc%\x9e\xfe\xac\x07\xee?'
tbag65
(g66
(I0
tS'b'
tRp989
(I1
(tg69
I00
S'>\x12\x95\xfe\xac\x07\xee?'
tbag65
(g66
(I0
tS'b'
tRp990
(I1
(tg69
I00
S'Hv\x8c\xfe\xac\x07\xee?'
tbag65
(g66
(I0
tS'b'
tRp991
(I1
(tg69
I00
S'\n\xb6\x83\xfe\xac\x07\xee?'
tbag65
(g66
(I0
tS'b'
tRp992
(I1
(tg69
I00
S'\xc0\xf8z\xfe\xac\x07\xee?'
tbasg321
(lp993
I0
aI2781
aI5562
aI8343
aI11124
aI13905
aI16686
asg323
(lp994
F14.135289192199707
aF18.331549167633057
aF22.243813037872314
aF26.076045036315918
aF29.976580142974854
aF33.630591154098511
aF37.268989086151123
asg325
(lp995
I0
aI278035
aI556070
aI834105
aI1112140
aI1390175
aI1668210
asbaa(lp996
S'train_y_row_norms_max'
p997
ag1
(g306
g3
NtRp998
(dp999
g309
(lp1000
I0
aI1
aI2
aI3
aI4
aI5
aI6
asg311
g502
sg312
(lp1001
g65
(g66
(I0
tS'b'
tRp1002
(I1
(tg69
I00
S'\x00\x00\x00\x00\x00\x00\x00\x00'
tbag65
(g66
(I0
tS'b'
tRp1003
(I1
(tg69
I00
S'\xa7\x84`&\xeb(\xbe?'
tbag65
(g66
(I0
tS'b'
tRp1004
(I1
(tg69
I00
S'\x01\xffz*\xe01\xc2?'
tbag65
(g66
(I0
tS'b'
tRp1005
(I1
(tg69
I00
S'\xff7\xe1q\x89\t\xc2?'
tbag65
(g66
(I0
tS'b'
tRp1006
(I1
(tg69
I00
S'[\xf6r\xe9\xb7\xc1\xc4?'
tbag65
(g66
(I0
tS'b'
tRp1007
(I1
(tg69
I00
S'\x93Ya\xaa>\xa9\xc6?'
tbag65
(g66
(I0
tS'b'
tRp1008
(I1
(tg69
I00
S'A\xe7(C\\\xd4\xc3?'
tbasg321
(lp1009
I0
aI2781
aI5562
aI8343
aI11124
aI13905
aI16686
asg323
(lp1010
F14.135289192199707
aF18.331549167633057
aF22.243813037872314
aF26.076045036315918
aF29.976580142974854
aF33.630591154098511
aF37.268989086151123
asg325
(lp1011
I0
aI278035
aI556070
aI834105
aI1112140
aI1390175
aI1668210
asbaa(lp1012
S'train_y_misclass'
p1013
ag1
(g306
g3
NtRp1014
(dp1015
g309
(lp1016
I0
aI1
aI2
aI3
aI4
aI5
aI6
asg311
g519
sg312
(lp1017
g65
(g66
(I0
tS'b'
tRp1018
(I1
(tg69
I00
S'\xfcU\x9d/\xe5u\xe7?'
tbag65
(g66
(I0
tS'b'
tRp1019
(I1
(tg69
I00
S'\x01R\xc5\xa05\x14\xd1?'
tbag65
(g66
(I0
tS'b'
tRp1020
(I1
(tg69
I00
S'\x01R\xc5\xa05\x14\xd1?'
tbag65
(g66
(I0
tS'b'
tRp1021
(I1
(tg69
I00
S'\x01R\xc5\xa05\x14\xd1?'
tbag65
(g66
(I0
tS'b'
tRp1022
(I1
(tg69
I00
S'\x01R\xc5\xa05\x14\xd1?'
tbag65
(g66
(I0
tS'b'
tRp1023
(I1
(tg69
I00
S'\x01R\xc5\xa05\x14\xd1?'
tbag65
(g66
(I0
tS'b'
tRp1024
(I1
(tg69
I00
S'\x01R\xc5\xa05\x14\xd1?'
tbasg321
(lp1025
I0
aI2781
aI5562
aI8343
aI11124
aI13905
aI16686
asg323
(lp1026
F14.135289192199707
aF18.331549167633057
aF22.243813037872314
aF26.076045036315918
aF29.976580142974854
aF33.630591154098511
aF37.268989086151123
asg325
(lp1027
I0
aI278035
aI556070
aI834105
aI1112140
aI1390175
aI1668210
asbaa(lp1028
S'train_h0_min_x_min_u'
p1029
ag1
(g306
g3
NtRp1030
(dp1031
g309
(lp1032
I0
aI1
aI2
aI3
aI4
aI5
aI6
asg311
g536
sg312
(lp1033
g65
(g66
(I0
tS'b'
tRp1034
(I1
(tg69
I00
S'\x00\x00\x00\x00\x00\x00\x00\x00'
tbag65
(g66
(I0
tS'b'
tRp1035
(I1
(tg69
I00
S'\x00\x00\x00\x00\x00\x00\x00\x00'
tbag65
(g66
(I0
tS'b'
tRp1036
(I1
(tg69
I00
S'\x00\x00\x00\x00\x00\x00\x00\x00'
tbag65
(g66
(I0
tS'b'
tRp1037
(I1
(tg69
I00
S'\x00\x00\x00\x00\x00\x00\x00\x00'
tbag65
(g66
(I0
tS'b'
tRp1038
(I1
(tg69
I00
S'\x00\x00\x00\x00\x00\x00\x00\x00'
tbag65
(g66
(I0
tS'b'
tRp1039
(I1
(tg69
I00
S'\x00\x00\x00\x00\x00\x00\x00\x00'
tbag65
(g66
(I0
tS'b'
tRp1040
(I1
(tg69
I00
S'\x00\x00\x00\x00\x00\x00\x00\x00'
tbasg321
(lp1041
I0
aI2781
aI5562
aI8343
aI11124
aI13905
aI16686
asg323
(lp1042
F14.135289192199707
aF18.331549167633057
aF22.243813037872314
aF26.076045036315918
aF29.976580142974854
aF33.630591154098511
aF37.268989086151123
asg325
(lp1043
I0
aI278035
aI556070
aI834105
aI1112140
aI1390175
aI1668210
asbaa(lp1044
S'train_y_mean_max_class'
p1045
ag1
(g306
g3
NtRp1046
(dp1047
g309
(lp1048
I0
aI1
aI2
aI3
aI4
aI5
aI6
asg311
g553
sg312
(lp1049
g65
(g66
(I0
tS'b'
tRp1050
(I1
(tg69
I00
S'\x8c\xfd\xff\xff\xff\xff\xdf?'
tbag65
(g66
(I0
tS'b'
tRp1051
(I1
(tg69
I00
S'\xa19G\x81z\xa0\xe6?'
tbag65
(g66
(I0
tS'b'
tRp1052
(I1
(tg69
I00
S'\x18t\xb6)H\xa7\xe7?'
tbag65
(g66
(I0
tS'b'
tRp1053
(I1
(tg69
I00
S'\x81\x17C\x9e\r\xda\xe6?'
tbag65
(g66
(I0
tS'b'
tRp1054
(I1
(tg69
I00
S'\x13!2y\xe9\xb8\xe7?'
tbag65
(g66
(I0
tS'b'
tRp1055
(I1
(tg69
I00
S'qb\xb4\x0c\x18\xdd\xe7?'
tbag65
(g66
(I0
tS'b'
tRp1056
(I1
(tg69
I00
S'S\xd0\xa4+98\xe6?'
tbasg321
(lp1057
I0
aI2781
aI5562
aI8343
aI11124
aI13905
aI16686
asg323
(lp1058
F14.135289192199707
aF18.331549167633057
aF22.243813037872314
aF26.076045036315918
aF29.976580142974854
aF33.630591154098511
aF37.268989086151123
asg325
(lp1059
I0
aI278035
aI556070
aI834105
aI1112140
aI1390175
aI1668210
asbaa(lp1060
S'train_h0_row_norms_mean'
p1061
ag1
(g306
g3
NtRp1062
(dp1063
g309
(lp1064
I0
aI1
aI2
aI3
aI4
aI5
aI6
asg311
g570
sg312
(lp1065
g65
(g66
(I0
tS'b'
tRp1066
(I1
(tg69
I00
S'\xf0d\xc6\xdb\xe3\x8f\x01@'
tbag65
(g66
(I0
tS'b'
tRp1067
(I1
(tg69
I00
S'\xaa\xe1\xabr\xda\x8f\x01@'
tbag65
(g66
(I0
tS'b'
tRp1068
(I1
(tg69
I00
S'":\xa9r\xda\x8f\x01@'
tbag65
(g66
(I0
tS'b'
tRp1069
(I1
(tg69
I00
S'\xb8\xbb\xa6r\xda\x8f\x01@'
tbag65
(g66
(I0
tS'b'
tRp1070
(I1
(tg69
I00
S'S_\xa4r\xda\x8f\x01@'
tbag65
(g66
(I0
tS'b'
tRp1071
(I1
(tg69
I00
S'\x05\xf8\xa1r\xda\x8f\x01@'
tbag65
(g66
(I0
tS'b'
tRp1072
(I1
(tg69
I00
S'P\x90\x9fr\xda\x8f\x01@'
tbasg321
(lp1073
I0
aI2781
aI5562
aI8343
aI11124
aI13905
aI16686
asg323
(lp1074
F14.135289192199707
aF18.331549167633057
aF22.243813037872314
aF26.076045036315918
aF29.976580142974854
aF33.630591154098511
aF37.268989086151123
asg325
(lp1075
I0
aI278035
aI556070
aI834105
aI1112140
aI1390175
aI1668210
asbaa(lp1076
S'train_h0_col_norms_max'
p1077
ag1
(g306
g3
NtRp1078
(dp1079
g309
(lp1080
I0
aI1
aI2
aI3
aI4
aI5
aI6
asg311
g587
sg312
(lp1081
g65
(g66
(I0
tS'b'
tRp1082
(I1
(tg69
I00
S']\xab\xf5,\xb1\xf1\x0b@'
tbag65
(g66
(I0
tS'b'
tRp1083
(I1
(tg69
I00
S']\xab\xf5,\xb1\xf1\x0b@'
tbag65
(g66
(I0
tS'b'
tRp1084
(I1
(tg69
I00
S']\xab\xf5,\xb1\xf1\x0b@'
tbag65
(g66
(I0
tS'b'
tRp1085
(I1
(tg69
I00
S']\xab\xf5,\xb1\xf1\x0b@'
tbag65
(g66
(I0
tS'b'
tRp1086
(I1
(tg69
I00
S']\xab\xf5,\xb1\xf1\x0b@'
tbag65
(g66
(I0
tS'b'
tRp1087
(I1
(tg69
I00
S']\xab\xf5,\xb1\xf1\x0b@'
tbag65
(g66
(I0
tS'b'
tRp1088
(I1
(tg69
I00
S'v\xab\xf5,\xb1\xf1\x0b@'
tbasg321
(lp1089
I0
aI2781
aI5562
aI8343
aI11124
aI13905
aI16686
asg323
(lp1090
F14.135289192199707
aF18.331549167633057
aF22.243813037872314
aF26.076045036315918
aF29.976580142974854
aF33.630591154098511
aF37.268989086151123
asg325
(lp1091
I0
aI278035
aI556070
aI834105
aI1112140
aI1390175
aI1668210
asbaa(lp1092
S'train_h0_mean_x_mean_u'
p1093
ag1
(g306
g3
NtRp1094
(dp1095
g309
(lp1096
I0
aI1
aI2
aI3
aI4
aI5
aI6
asg311
g604
sg312
(lp1097
g65
(g66
(I0
tS'b'
tRp1098
(I1
(tg69
I00
S'QB\x0c\xc5#>\xe3?'
tbag65
(g66
(I0
tS'b'
tRp1099
(I1
(tg69
I00
S'imS$/>\xe3?'
tbag65
(g66
(I0
tS'b'
tRp1100
(I1
(tg69
I00
S'hmS$/>\xe3?'
tbag65
(g66
(I0
tS'b'
tRp1101
(I1
(tg69
I00
S'hmS$/>\xe3?'
tbag65
(g66
(I0
tS'b'
tRp1102
(I1
(tg69
I00
S'hmS$/>\xe3?'
tbag65
(g66
(I0
tS'b'
tRp1103
(I1
(tg69
I00
S'hmS$/>\xe3?'
tbag65
(g66
(I0
tS'b'
tRp1104
(I1
(tg69
I00
S'hmS$/>\xe3?'
tbasg321
(lp1105
I0
aI2781
aI5562
aI8343
aI11124
aI13905
aI16686
asg323
(lp1106
F14.135289192199707
aF18.331549167633057
aF22.243813037872314
aF26.076045036315918
aF29.976580142974854
aF33.630591154098511
aF37.268989086151123
asg325
(lp1107
I0
aI278035
aI556070
aI834105
aI1112140
aI1390175
aI1668210
asbaa(lp1108
S'train_y_row_norms_min'
p1109
ag1
(g306
g3
NtRp1110
(dp1111
g309
(lp1112
I0
aI1
aI2
aI3
aI4
aI5
aI6
asg311
g621
sg312
(lp1113
g65
(g66
(I0
tS'b'
tRp1114
(I1
(tg69
I00
S'\x00\x00\x00\x00\x00\x00\x00\x00'
tbag65
(g66
(I0
tS'b'
tRp1115
(I1
(tg69
I00
S'\x7f\r\xa6\xc3h\x02\x85?'
tbag65
(g66
(I0
tS'b'
tRp1116
(I1
(tg69
I00
S'\xcd*\\t\x9bI\x97?'
tbag65
(g66
(I0
tS'b'
tRp1117
(I1
(tg69
I00
S'kZ\xe9C\xf1\xf27?'
tbag65
(g66
(I0
tS'b'
tRp1118
(I1
(tg69
I00
S'\x87\xa5P\xdc\xdf\x1f\xa0?'
tbag65
(g66
(I0
tS'b'
tRp1119
(I1
(tg69
I00
S'\xb14\xa4\xff\xf9\xd9\x8f?'
tbag65
(g66
(I0
tS'b'
tRp1120
(I1
(tg69
I00
S'\x80\xb1Q\xe5V\t\x83?'
tbasg321
(lp1121
I0
aI2781
aI5562
aI8343
aI11124
aI13905
aI16686
asg323
(lp1122
F14.135289192199707
aF18.331549167633057
aF22.243813037872314
aF26.076045036315918
aF29.976580142974854
aF33.630591154098511
aF37.268989086151123
asg325
(lp1123
I0
aI278035
aI556070
aI834105
aI1112140
aI1390175
aI1668210
asbaa(lp1124
S'train_h0_mean_x_min_u'
p1125
ag1
(g306
g3
NtRp1126
(dp1127
g309
(lp1128
I0
aI1
aI2
aI3
aI4
aI5
aI6
asg311
g638
sg312
(lp1129
g65
(g66
(I0
tS'b'
tRp1130
(I1
(tg69
I00
S'\x94\xe5\xca\xcd\x1a\xb3-?'
tbag65
(g66
(I0
tS'b'
tRp1131
(I1
(tg69
I00
S'\x94\xe5\xca\xcd\x1a\xb3-?'
tbag65
(g66
(I0
tS'b'
tRp1132
(I1
(tg69
I00
S'\x94\xe5\xca\xcd\x1a\xb3-?'
tbag65
(g66
(I0
tS'b'
tRp1133
(I1
(tg69
I00
S'\x94\xe5\xca\xcd\x1a\xb3-?'
tbag65
(g66
(I0
tS'b'
tRp1134
(I1
(tg69
I00
S'\x94\xe5\xca\xcd\x1a\xb3-?'
tbag65
(g66
(I0
tS'b'
tRp1135
(I1
(tg69
I00
S'\x94\xe5\xca\xcd\x1a\xb3-?'
tbag65
(g66
(I0
tS'b'
tRp1136
(I1
(tg69
I00
S'\x94\xe5\xca\xcd\x1a\xb3-?'
tbasg321
(lp1137
I0
aI2781
aI5562
aI8343
aI11124
aI13905
aI16686
asg323
(lp1138
F14.135289192199707
aF18.331549167633057
aF22.243813037872314
aF26.076045036315918
aF29.976580142974854
aF33.630591154098511
aF37.268989086151123
asg325
(lp1139
I0
aI278035
aI556070
aI834105
aI1112140
aI1390175
aI1668210
asbaa(lp1140
S'train_h0_max_x_mean_u'
p1141
ag1
(g306
g3
NtRp1142
(dp1143
g309
(lp1144
I0
aI1
aI2
aI3
aI4
aI5
aI6
asg311
g655
sg312
(lp1145
g65
(g66
(I0
tS'b'
tRp1146
(I1
(tg69
I00
S"\xb7\xd5~B'\xeb\xea?"
tbag65
(g66
(I0
tS'b'
tRp1147
(I1
(tg69
I00
S"\xb7\xd5~B'\xeb\xea?"
tbag65
(g66
(I0
tS'b'
tRp1148
(I1
(tg69
I00
S"\xb7\xd5~B'\xeb\xea?"
tbag65
(g66
(I0
tS'b'
tRp1149
(I1
(tg69
I00
S"\xb7\xd5~B'\xeb\xea?"
tbag65
(g66
(I0
tS'b'
tRp1150
(I1
(tg69
I00
S"\xb7\xd5~B'\xeb\xea?"
tbag65
(g66
(I0
tS'b'
tRp1151
(I1
(tg69
I00
S"\xb7\xd5~B'\xeb\xea?"
tbag65
(g66
(I0
tS'b'
tRp1152
(I1
(tg69
I00
S"\xb7\xd5~B'\xeb\xea?"
tbasg321
(lp1153
I0
aI2781
aI5562
aI8343
aI11124
aI13905
aI16686
asg323
(lp1154
F14.135289192199707
aF18.331549167633057
aF22.243813037872314
aF26.076045036315918
aF29.976580142974854
aF33.630591154098511
aF37.268989086151123
asg325
(lp1155
I0
aI278035
aI556070
aI834105
aI1112140
aI1390175
aI1668210
asbaa(lp1156
S'train_y_col_norms_mean'
p1157
ag1
(g306
g3
NtRp1158
(dp1159
g309
(lp1160
I0
aI1
aI2
aI3
aI4
aI5
aI6
asg311
g672
sg312
(lp1161
g65
(g66
(I0
tS'b'
tRp1162
(I1
(tg69
I00
S'\x00\x00\x00\x00\x00\x00\x00\x00'
tbag65
(g66
(I0
tS'b'
tRp1163
(I1
(tg69
I00
S'\xac\x90l\xf3\x83p\xc5?'
tbag65
(g66
(I0
tS'b'
tRp1164
(I1
(tg69
I00
S'\xce\x12\x02\xdc\x9e\xf1\xc8?'
tbag65
(g66
(I0
tS'b'
tRp1165
(I1
(tg69
I00
S'\xdc\x1b,+\xf8D\xc7?'
tbag65
(g66
(I0
tS'b'
tRp1166
(I1
(tg69
I00
S'\xe32\x16\xc6\x80\xd8\xca?'
tbag65
(g66
(I0
tS'b'
tRp1167
(I1
(tg69
I00
S'V\xaf&]\x86\xb2\xcc?'
tbag65
(g66
(I0
tS'b'
tRp1168
(I1
(tg69
I00
S'\xba\x83F\xc6@\r\xc9?'
tbasg321
(lp1169
I0
aI2781
aI5562
aI8343
aI11124
aI13905
aI16686
asg323
(lp1170
F14.135289192199707
aF18.331549167633057
aF22.243813037872314
aF26.076045036315918
aF29.976580142974854
aF33.630591154098511
aF37.268989086151123
asg325
(lp1171
I0
aI278035
aI556070
aI834105
aI1112140
aI1390175
aI1668210
asbaa(lp1172
S'train_y_max_max_class'
p1173
ag1
(g306
g3
NtRp1174
(dp1175
g309
(lp1176
I0
aI1
aI2
aI3
aI4
aI5
aI6
asg311
g689
sg312
(lp1177
g65
(g66
(I0
tS'b'
tRp1178
(I1
(tg69
I00
S'\x8c\xfd\xff\xff\xff\xff\xdf?'
tbag65
(g66
(I0
tS'b'
tRp1179
(I1
(tg69
I00
S'\x1b\xae\xc4\xa6K\xb6\xe6?'
tbag65
(g66
(I0
tS'b'
tRp1180
(I1
(tg69
I00
S'\xee\x14\xce\x8f}\xe7\xe7?'
tbag65
(g66
(I0
tS'b'
tRp1181
(I1
(tg69
I00
S'\xf5t\xccj\r\xf8\xe6?'
tbag65
(g66
(I0
tS'b'
tRp1182
(I1
(tg69
I00
S'\x8f\xe6t\x9c\xa3\x0c\xe8?'
tbag65
(g66
(I0
tS'b'
tRp1183
(I1
(tg69
I00
S'\xb2\xe9?\x18\xf4\t\xe8?'
tbag65
(g66
(I0
tS'b'
tRp1184
(I1
(tg69
I00
S'\x86\xf8\x91~]\x96\xe6?'
tbasg321
(lp1185
I0
aI2781
aI5562
aI8343
aI11124
aI13905
aI16686
asg323
(lp1186
F14.135289192199707
aF18.331549167633057
aF22.243813037872314
aF26.076045036315918
aF29.976580142974854
aF33.630591154098511
aF37.268989086151123
asg325
(lp1187
I0
aI278035
aI556070
aI834105
aI1112140
aI1390175
aI1668210
asbaa(lp1188
S'train_h0_col_norms_mean'
p1189
ag1
(g306
g3
NtRp1190
(dp1191
g309
(lp1192
I0
aI1
aI2
aI3
aI4
aI5
aI6
asg311
g706
sg312
(lp1193
g65
(g66
(I0
tS'b'
tRp1194
(I1
(tg69
I00
S'\xb6\xcb\xe7\x02\xfe\xb4\x01@'
tbag65
(g66
(I0
tS'b'
tRp1195
(I1
(tg69
I00
S'\xc2u\xc9\x17\xfe\xb4\x01@'
tbag65
(g66
(I0
tS'b'
tRp1196
(I1
(tg69
I00
S'"\x95\xc9\x17\xfe\xb4\x01@'
tbag65
(g66
(I0
tS'b'
tRp1197
(I1
(tg69
I00
S'\x1c\xb1\xc9\x17\xfe\xb4\x01@'
tbag65
(g66
(I0
tS'b'
tRp1198
(I1
(tg69
I00
S'\xb9\xcb\xc9\x17\xfe\xb4\x01@'
tbag65
(g66
(I0
tS'b'
tRp1199
(I1
(tg69
I00
S'j\xe7\xc9\x17\xfe\xb4\x01@'
tbag65
(g66
(I0
tS'b'
tRp1200
(I1
(tg69
I00
S'\xa9\x02\xca\x17\xfe\xb4\x01@'
tbasg321
(lp1201
I0
aI2781
aI5562
aI8343
aI11124
aI13905
aI16686
asg323
(lp1202
F14.135289192199707
aF18.331549167633057
aF22.243813037872314
aF26.076045036315918
aF29.976580142974854
aF33.630591154098511
aF37.268989086151123
asg325
(lp1203
I0
aI278035
aI556070
aI834105
aI1112140
aI1390175
aI1668210
asbaa(lp1204
S'train_y_min_max_class'
p1205
ag1
(g306
g3
NtRp1206
(dp1207
g309
(lp1208
I0
aI1
aI2
aI3
aI4
aI5
aI6
asg311
g723
sg312
(lp1209
g65
(g66
(I0
tS'b'
tRp1210
(I1
(tg69
I00
S'\x8c\xfd\xff\xff\xff\xff\xdf?'
tbag65
(g66
(I0
tS'b'
tRp1211
(I1
(tg69
I00
S'\xc2\xb3O\xbb\x91@\xe6?'
tbag65
(g66
(I0
tS'b'
tRp1212
(I1
(tg69
I00
S'g\xb7l\xba\x01B\xe7?'
tbag65
(g66
(I0
tS'b'
tRp1213
(I1
(tg69
I00
S'\xd0\x8a\x08\xbc\xc1\x7f\xe6?'
tbag65
(g66
(I0
tS'b'
tRp1214
(I1
(tg69
I00
S'\r\xd3\xca~=d\xe7?'
tbag65
(g66
(I0
tS'b'
tRp1215
(I1
(tg69
I00
S'\xebWO\x7f\xaax\xe7?'
tbag65
(g66
(I0
tS'b'
tRp1216
(I1
(tg69
I00
S'\xf3\x1aJ\xef\xa5\xac\xe5?'
tbasg321
(lp1217
I0
aI2781
aI5562
aI8343
aI11124
aI13905
aI16686
asg323
(lp1218
F14.135289192199707
aF18.331549167633057
aF22.243813037872314
aF26.076045036315918
aF29.976580142974854
aF33.630591154098511
aF37.268989086151123
asg325
(lp1219
I0
aI278035
aI556070
aI834105
aI1112140
aI1390175
aI1668210
asbaa(lp1220
S'train_y_row_norms_mean'
p1221
ag1
(g306
g3
NtRp1222
(dp1223
g309
(lp1224
I0
aI1
aI2
aI3
aI4
aI5
aI6
asg311
g740
sg312
(lp1225
g65
(g66
(I0
tS'b'
tRp1226
(I1
(tg69
I00
S'\x00\x00\x00\x00\x00\x00\x00\x00'
tbag65
(g66
(I0
tS'b'
tRp1227
(I1
(tg69
I00
S'b0\n\x1e\xd2\xb1\xae?'
tbag65
(g66
(I0
tS'b'
tRp1228
(I1
(tg69
I00
S'\xe1\x9f\xe1\xe4\xe8\x1d\xb3?'
tbag65
(g66
(I0
tS'b'
tRp1229
(I1
(tg69
I00
S'\x90e\x15\xcb\xdf\xd5\xb1?'
tbag65
(g66
(I0
tS'b'
tRp1230
(I1
(tg69
I00
S'N\x8f\xb5\xc1\xe8\xcb\xb5?'
tbag65
(g66
(I0
tS'b'
tRp1231
(I1
(tg69
I00
S'\xd7\x81\xcd\r\xdc\xea\xb6?'
tbag65
(g66
(I0
tS'b'
tRp1232
(I1
(tg69
I00
S'\r\x06\xb0\xa9\xc1\x98\xb3?'
tbasg321
(lp1233
I0
aI2781
aI5562
aI8343
aI11124
aI13905
aI16686
asg323
(lp1234
F14.135289192199707
aF18.331549167633057
aF22.243813037872314
aF26.076045036315918
aF29.976580142974854
aF33.630591154098511
aF37.268989086151123
asg325
(lp1235
I0
aI278035
aI556070
aI834105
aI1112140
aI1390175
aI1668210
asbaa(lp1236
S'train_h0_row_norms_max'
p1237
ag1
(g306
g3
NtRp1238
(dp1239
g309
(lp1240
I0
aI1
aI2
aI3
aI4
aI5
aI6
asg311
g757
sg312
(lp1241
g65
(g66
(I0
tS'b'
tRp1242
(I1
(tg69
I00
S'(*p\x95|f\x08@'
tbag65
(g66
(I0
tS'b'
tRp1243
(I1
(tg69
I00
S'\x10,<\xda}f\x08@'
tbag65
(g66
(I0
tS'b'
tRp1244
(I1
(tg69
I00
S'\x05,<\xda}f\x08@'
tbag65
(g66
(I0
tS'b'
tRp1245
(I1
(tg69
I00
S'\xde+<\xda}f\x08@'
tbag65
(g66
(I0
tS'b'
tRp1246
(I1
(tg69
I00
S'\xdb+<\xda}f\x08@'
tbag65
(g66
(I0
tS'b'
tRp1247
(I1
(tg69
I00
S'\xce+<\xda}f\x08@'
tbag65
(g66
(I0
tS'b'
tRp1248
(I1
(tg69
I00
S'\xa1+<\xda}f\x08@'
tbasg321
(lp1249
I0
aI2781
aI5562
aI8343
aI11124
aI13905
aI16686
asg323
(lp1250
F14.135289192199707
aF18.331549167633057
aF22.243813037872314
aF26.076045036315918
aF29.976580142974854
aF33.630591154098511
aF37.268989086151123
asg325
(lp1251
I0
aI278035
aI556070
aI834105
aI1112140
aI1390175
aI1668210
asbaa(lp1252
S'train_h0_max_x_max_u'
p1253
ag1
(g306
g3
NtRp1254
(dp1255
g309
(lp1256
I0
aI1
aI2
aI3
aI4
aI5
aI6
asg311
g774
sg312
(lp1257
g65
(g66
(I0
tS'b'
tRp1258
(I1
(tg69
I00
S'\x8c\xfd\xff\xff\xff\xff\xef?'
tbag65
(g66
(I0
tS'b'
tRp1259
(I1
(tg69
I00
S'\x8c\xfd\xff\xff\xff\xff\xef?'
tbag65
(g66
(I0
tS'b'
tRp1260
(I1
(tg69
I00
S'\x8c\xfd\xff\xff\xff\xff\xef?'
tbag65
(g66
(I0
tS'b'
tRp1261
(I1
(tg69
I00
S'\x8c\xfd\xff\xff\xff\xff\xef?'
tbag65
(g66
(I0
tS'b'
tRp1262
(I1
(tg69
I00
S'\x8c\xfd\xff\xff\xff\xff\xef?'
tbag65
(g66
(I0
tS'b'
tRp1263
(I1
(tg69
I00
S'\x8c\xfd\xff\xff\xff\xff\xef?'
tbag65
(g66
(I0
tS'b'
tRp1264
(I1
(tg69
I00
S'\x8c\xfd\xff\xff\xff\xff\xef?'
tbasg321
(lp1265
I0
aI2781
aI5562
aI8343
aI11124
aI13905
aI16686
asg323
(lp1266
F14.135289192199707
aF18.331549167633057
aF22.243813037872314
aF26.076045036315918
aF29.976580142974854
aF33.630591154098511
aF37.268989086151123
asg325
(lp1267
I0
aI278035
aI556070
aI834105
aI1112140
aI1390175
aI1668210
asbaa(lp1268
S'train_y_col_norms_min'
p1269
ag1
(g306
g3
NtRp1270
(dp1271
g309
(lp1272
I0
aI1
aI2
aI3
aI4
aI5
aI6
asg311
g791
sg312
(lp1273
g65
(g66
(I0
tS'b'
tRp1274
(I1
(tg69
I00
S'\x00\x00\x00\x00\x00\x00\x00\x00'
tbag65
(g66
(I0
tS'b'
tRp1275
(I1
(tg69
I00
S'\xac\x90l\xf3\x83p\xc5?'
tbag65
(g66
(I0
tS'b'
tRp1276
(I1
(tg69
I00
S'\xce\x12\x02\xdc\x9e\xf1\xc8?'
tbag65
(g66
(I0
tS'b'
tRp1277
(I1
(tg69
I00
S'\xdc\x1b,+\xf8D\xc7?'
tbag65
(g66
(I0
tS'b'
tRp1278
(I1
(tg69
I00
S'\xe32\x16\xc6\x80\xd8\xca?'
tbag65
(g66
(I0
tS'b'
tRp1279
(I1
(tg69
I00
S'U\xaf&]\x86\xb2\xcc?'
tbag65
(g66
(I0
tS'b'
tRp1280
(I1
(tg69
I00
S'\xba\x83F\xc6@\r\xc9?'
tbasg321
(lp1281
I0
aI2781
aI5562
aI8343
aI11124
aI13905
aI16686
asg323
(lp1282
F14.135289192199707
aF18.331549167633057
aF22.243813037872314
aF26.076045036315918
aF29.976580142974854
aF33.630591154098511
aF37.268989086151123
asg325
(lp1283
I0
aI278035
aI556070
aI834105
aI1112140
aI1390175
aI1668210
asbaa(lp1284
S'train_h0_col_norms_min'
p1285
ag1
(g306
g3
NtRp1286
(dp1287
g309
(lp1288
I0
aI1
aI2
aI3
aI4
aI5
aI6
asg311
g808
sg312
(lp1289
g65
(g66
(I0
tS'b'
tRp1290
(I1
(tg69
I00
S'\x00\x01?"L\xbd\xf2?'
tbag65
(g66
(I0
tS'b'
tRp1291
(I1
(tg69
I00
S'\x00\x01?"L\xbd\xf2?'
tbag65
(g66
(I0
tS'b'
tRp1292
(I1
(tg69
I00
S'\x00\x01?"L\xbd\xf2?'
tbag65
(g66
(I0
tS'b'
tRp1293
(I1
(tg69
I00
S'\x00\x01?"L\xbd\xf2?'
tbag65
(g66
(I0
tS'b'
tRp1294
(I1
(tg69
I00
S'\x00\x01?"L\xbd\xf2?'
tbag65
(g66
(I0
tS'b'
tRp1295
(I1
(tg69
I00
S'\x00\x01?"L\xbd\xf2?'
tbag65
(g66
(I0
tS'b'
tRp1296
(I1
(tg69
I00
S'\x00\x01?"L\xbd\xf2?'
tbasg321
(lp1297
I0
aI2781
aI5562
aI8343
aI11124
aI13905
aI16686
asg323
(lp1298
F14.135289192199707
aF18.331549167633057
aF22.243813037872314
aF26.076045036315918
aF29.976580142974854
aF33.630591154098511
aF37.268989086151123
asg325
(lp1299
I0
aI278035
aI556070
aI834105
aI1112140
aI1390175
aI1668210
asbaa(lp1300
S'valid_objective'
p1301
ag1
(g306
g3
NtRp1302
(dp1303
g309
(lp1304
I0
aI1
aI2
aI3
aI4
aI5
aI6
asg311
Nsg312
(lp1305
g65
(g66
(I0
tS'b'
tRp1306
(I1
(tg69
I00
S'\xf29\xfa\xfeB.\xe6?'
tbag65
(g66
(I0
tS'b'
tRp1307
(I1
(tg69
I00
S'\xb2\xec\x14\xcd\xfc\x13\xf3?'
tbag65
(g66
(I0
tS'b'
tRp1308
(I1
(tg69
I00
S'A8\x92\xe8\xa0\x17\xf5?'
tbag65
(g66
(I0
tS'b'
tRp1309
(I1
(tg69
I00
S'\x060|z\x19\x88\xf3?'
tbag65
(g66
(I0
tS'b'
tRp1310
(I1
(tg69
I00
S'd\x95\xa4F0N\xf5?'
tbag65
(g66
(I0
tS'b'
tRp1311
(I1
(tg69
I00
S'TD\x82\xd8\xea3\xf5?'
tbag65
(g66
(I0
tS'b'
tRp1312
(I1
(tg69
I00
S'\xfc\xdf}\xaa/\xc5\xf2?'
tbasg321
(lp1313
I0
aI2781
aI5562
aI8343
aI11124
aI13905
aI16686
asg323
(lp1314
F14.135289192199707
aF18.331549167633057
aF22.243813037872314
aF26.076045036315918
aF29.976580142974854
aF33.630591154098511
aF37.268989086151123
asg325
(lp1315
I0
aI278035
aI556070
aI834105
aI1112140
aI1390175
aI1668210
asbaa(lp1316
S'valid_h0_range_x_min_u'
p1317
ag1
(g306
g3
NtRp1318
(dp1319
g309
(lp1320
I0
aI1
aI2
aI3
aI4
aI5
aI6
asg311
g332
sg312
(lp1321
g65
(g66
(I0
tS'b'
tRp1322
(I1
(tg69
I00
S'\x00\x00\x00\x00\x00\x00\x00\x00'
tbag65
(g66
(I0
tS'b'
tRp1323
(I1
(tg69
I00
S'\x00\x00\x00\x00\x00\x00\x00\x00'
tbag65
(g66
(I0
tS'b'
tRp1324
(I1
(tg69
I00
S'\x00\x00\x00\x00\x00\x00\x00\x00'
tbag65
(g66
(I0
tS'b'
tRp1325
(I1
(tg69
I00
S'\x00\x00\x00\x00\x00\x00\x00\x00'
tbag65
(g66
(I0
tS'b'
tRp1326
(I1
(tg69
I00
S'\x00\x00\x00\x00\x00\x00\x00\x00'
tbag65
(g66
(I0
tS'b'
tRp1327
(I1
(tg69
I00
S'\x00\x00\x00\x00\x00\x00\x00\x00'
tbag65
(g66
(I0
tS'b'
tRp1328
(I1
(tg69
I00
S'\x00\x00\x00\x00\x00\x00\x00\x00'
tbasg321
(lp1329
I0
aI2781
aI5562
aI8343
aI11124
aI13905
aI16686
asg323
(lp1330
F14.135289192199707
aF18.331549167633057
aF22.243813037872314
aF26.076045036315918
aF29.976580142974854
aF33.630591154098511
aF37.268989086151123
asg325
(lp1331
I0
aI278035
aI556070
aI834105
aI1112140
aI1390175
aI1668210
asbaa(lp1332
S'valid_h0_min_x_mean_u'
p1333
ag1
(g306
g3
NtRp1334
(dp1335
g309
(lp1336
I0
aI1
aI2
aI3
aI4
aI5
aI6
asg311
g349
sg312
(lp1337
g65
(g66
(I0
tS'b'
tRp1338
(I1
(tg69
I00
S'\x10i\xd1\x81\xa2q\xd8?'
tbag65
(g66
(I0
tS'b'
tRp1339
(I1
(tg69
I00
S'z\xdf)|\xa2q\xd8?'
tbag65
(g66
(I0
tS'b'
tRp1340
(I1
(tg69
I00
S'\xe8;\xf3u\xa2q\xd8?'
tbag65
(g66
(I0
tS'b'
tRp1341
(I1
(tg69
I00
S'\xd4\xaf\x1ep\xa2q\xd8?'
tbag65
(g66
(I0
tS'b'
tRp1342
(I1
(tg69
I00
S'\xb0\xdb\x97j\xa2q\xd8?'
tbag65
(g66
(I0
tS'b'
tRp1343
(I1
(tg69
I00
S'\x8d=\xf6d\xa2q\xd8?'
tbag65
(g66
(I0
tS'b'
tRp1344
(I1
(tg69
I00
S'[\x87X_\xa2q\xd8?'
tbasg321
(lp1345
I0
aI2781
aI5562
aI8343
aI11124
aI13905
aI16686
asg323
(lp1346
F14.135289192199707
aF18.331549167633057
aF22.243813037872314
aF26.076045036315918
aF29.976580142974854
aF33.630591154098511
aF37.268989086151123
asg325
(lp1347
I0
aI278035
aI556070
aI834105
aI1112140
aI1390175
aI1668210
asbaa(lp1348
S'valid_h0_mean_x_max_u'
p1349
ag1
(g306
g3
NtRp1350
(dp1351
g309
(lp1352
I0
aI1
aI2
aI3
aI4
aI5
aI6
asg311
g366
sg312
(lp1353
g65
(g66
(I0
tS'b'
tRp1354
(I1
(tg69
I00
S'\x00\x00\x00\x00\x00\x00\xf0?'
tbag65
(g66
(I0
tS'b'
tRp1355
(I1
(tg69
I00
S'\x00\x00\x00\x00\x00\x00\xf0?'
tbag65
(g66
(I0
tS'b'
tRp1356
(I1
(tg69
I00
S'\x00\x00\x00\x00\x00\x00\xf0?'
tbag65
(g66
(I0
tS'b'
tRp1357
(I1
(tg69
I00
S'\x00\x00\x00\x00\x00\x00\xf0?'
tbag65
(g66
(I0
tS'b'
tRp1358
(I1
(tg69
I00
S'\x00\x00\x00\x00\x00\x00\xf0?'
tbag65
(g66
(I0
tS'b'
tRp1359
(I1
(tg69
I00
S'\x00\x00\x00\x00\x00\x00\xf0?'
tbag65
(g66
(I0
tS'b'
tRp1360
(I1
(tg69
I00
S'\x00\x00\x00\x00\x00\x00\xf0?'
tbasg321
(lp1361
I0
aI2781
aI5562
aI8343
aI11124
aI13905
aI16686
asg323
(lp1362
F14.135289192199707
aF18.331549167633057
aF22.243813037872314
aF26.076045036315918
aF29.976580142974854
aF33.630591154098511
aF37.268989086151123
asg325
(lp1363
I0
aI278035
aI556070
aI834105
aI1112140
aI1390175
aI1668210
asbaa(lp1364
S'valid_y_col_norms_max'
p1365
ag1
(g306
g3
NtRp1366
(dp1367
g309
(lp1368
I0
aI1
aI2
aI3
aI4
aI5
aI6
asg311
g383
sg312
(lp1369
g65
(g66
(I0
tS'b'
tRp1370
(I1
(tg69
I00
S'\x00\x00\x00\x00\x00\x00\x00\x00'
tbag65
(g66
(I0
tS'b'
tRp1371
(I1
(tg69
I00
S'\x08\x91l\xf3\x83p\xc5?'
tbag65
(g66
(I0
tS'b'
tRp1372
(I1
(tg69
I00
S'\xc0\x11\x02\xdc\x9e\xf1\xc8?'
tbag65
(g66
(I0
tS'b'
tRp1373
(I1
(tg69
I00
S'\x03\x1c,+\xf8D\xc7?'
tbag65
(g66
(I0
tS'b'
tRp1374
(I1
(tg69
I00
S'D2\x16\xc6\x80\xd8\xca?'
tbag65
(g66
(I0
tS'b'
tRp1375
(I1
(tg69
I00
S'\xb8\xb0&]\x86\xb2\xcc?'
tbag65
(g66
(I0
tS'b'
tRp1376
(I1
(tg69
I00
S'[\x85F\xc6@\r\xc9?'
tbasg321
(lp1377
I0
aI2781
aI5562
aI8343
aI11124
aI13905
aI16686
asg323
(lp1378
F14.135289192199707
aF18.331549167633057
aF22.243813037872314
aF26.076045036315918
aF29.976580142974854
aF33.630591154098511
aF37.268989086151123
asg325
(lp1379
I0
aI278035
aI556070
aI834105
aI1112140
aI1390175
aI1668210
asbaa(lp1380
S'valid_y_nll'
p1381
ag1
(g306
g3
NtRp1382
(dp1383
g309
(lp1384
I0
aI1
aI2
aI3
aI4
aI5
aI6
asg311
g400
sg312
(lp1385
g65
(g66
(I0
tS'b'
tRp1386
(I1
(tg69
I00
S'\xf29\xfa\xfeB.\xe6?'
tbag65
(g66
(I0
tS'b'
tRp1387
(I1
(tg69
I00
S'\xb2\xec\x14\xcd\xfc\x13\xf3?'
tbag65
(g66
(I0
tS'b'
tRp1388
(I1
(tg69
I00
S'A8\x92\xe8\xa0\x17\xf5?'
tbag65
(g66
(I0
tS'b'
tRp1389
(I1
(tg69
I00
S'\x060|z\x19\x88\xf3?'
tbag65
(g66
(I0
tS'b'
tRp1390
(I1
(tg69
I00
S'd\x95\xa4F0N\xf5?'
tbag65
(g66
(I0
tS'b'
tRp1391
(I1
(tg69
I00
S'TD\x82\xd8\xea3\xf5?'
tbag65
(g66
(I0
tS'b'
tRp1392
(I1
(tg69
I00
S'\xfc\xdf}\xaa/\xc5\xf2?'
tbasg321
(lp1393
I0
aI2781
aI5562
aI8343
aI11124
aI13905
aI16686
asg323
(lp1394
F14.135289192199707
aF18.331549167633057
aF22.243813037872314
aF26.076045036315918
aF29.976580142974854
aF33.630591154098511
aF37.268989086151123
asg325
(lp1395
I0
aI278035
aI556070
aI834105
aI1112140
aI1390175
aI1668210
asbaa(lp1396
S'valid_h0_range_x_max_u'
p1397
ag1
(g306
g3
NtRp1398
(dp1399
g309
(lp1400
I0
aI1
aI2
aI3
aI4
aI5
aI6
asg311
g417
sg312
(lp1401
g65
(g66
(I0
tS'b'
tRp1402
(I1
(tg69
I00
S'Y\x1f\x97\xe2\xff\xff\xef?'
tbag65
(g66
(I0
tS'b'
tRp1403
(I1
(tg69
I00
S'Y\x1f\x97\xe2\xff\xff\xef?'
tbag65
(g66
(I0
tS'b'
tRp1404
(I1
(tg69
I00
S'Y\x1f\x97\xe2\xff\xff\xef?'
tbag65
(g66
(I0
tS'b'
tRp1405
(I1
(tg69
I00
S'Y\x1f\x97\xe2\xff\xff\xef?'
tbag65
(g66
(I0
tS'b'
tRp1406
(I1
(tg69
I00
S'Y\x1f\x97\xe2\xff\xff\xef?'
tbag65
(g66
(I0
tS'b'
tRp1407
(I1
(tg69
I00
S'Y\x1f\x97\xe2\xff\xff\xef?'
tbag65
(g66
(I0
tS'b'
tRp1408
(I1
(tg69
I00
S'Y\x1f\x97\xe2\xff\xff\xef?'
tbasg321
(lp1409
I0
aI2781
aI5562
aI8343
aI11124
aI13905
aI16686
asg323
(lp1410
F14.135289192199707
aF18.331549167633057
aF22.243813037872314
aF26.076045036315918
aF29.976580142974854
aF33.630591154098511
aF37.268989086151123
asg325
(lp1411
I0
aI278035
aI556070
aI834105
aI1112140
aI1390175
aI1668210
asbaa(lp1412
S'valid_h0_range_x_mean_u'
p1413
ag1
(g306
g3
NtRp1414
(dp1415
g309
(lp1416
I0
aI1
aI2
aI3
aI4
aI5
aI6
asg311
g434
sg312
(lp1417
g65
(g66
(I0
tS'b'
tRp1418
(I1
(tg69
I00
S'\xf1\xf7H\x003\xaf\xe0?'
tbag65
(g66
(I0
tS'b'
tRp1419
(I1
(tg69
I00
S'\xbc\xbc\x1c\x033\xaf\xe0?'
tbag65
(g66
(I0
tS'b'
tRp1420
(I1
(tg69
I00
S'\x84\x0e8\x063\xaf\xe0?'
tbag65
(g66
(I0
tS'b'
tRp1421
(I1
(tg69
I00
S'\x8fT"\t3\xaf\xe0?'
tbag65
(g66
(I0
tS'b'
tRp1422
(I1
(tg69
I00
S'\xa0\xbe\xe5\x0b3\xaf\xe0?'
tbag65
(g66
(I0
tS'b'
tRp1423
(I1
(tg69
I00
S'\xb2\x8d\xb6\x0e3\xaf\xe0?'
tbag65
(g66
(I0
tS'b'
tRp1424
(I1
(tg69
I00
S'\xcah\x85\x113\xaf\xe0?'
tbasg321
(lp1425
I0
aI2781
aI5562
aI8343
aI11124
aI13905
aI16686
asg323
(lp1426
F14.135289192199707
aF18.331549167633057
aF22.243813037872314
aF26.076045036315918
aF29.976580142974854
aF33.630591154098511
aF37.268989086151123
asg325
(lp1427
I0
aI278035
aI556070
aI834105
aI1112140
aI1390175
aI1668210
asbaa(lp1428
S'valid_h0_min_x_max_u'
p1429
ag1
(g306
g3
NtRp1430
(dp1431
g309
(lp1432
I0
aI1
aI2
aI3
aI4
aI5
aI6
asg311
g451
sg312
(lp1433
g65
(g66
(I0
tS'b'
tRp1434
(I1
(tg69
I00
S'\x00\x00\x00\x00\x00\x00\xf0?'
tbag65
(g66
(I0
tS'b'
tRp1435
(I1
(tg69
I00
S'\x00\x00\x00\x00\x00\x00\xf0?'
tbag65
(g66
(I0
tS'b'
tRp1436
(I1
(tg69
I00
S'\x00\x00\x00\x00\x00\x00\xf0?'
tbag65
(g66
(I0
tS'b'
tRp1437
(I1
(tg69
I00
S'\x00\x00\x00\x00\x00\x00\xf0?'
tbag65
(g66
(I0
tS'b'
tRp1438
(I1
(tg69
I00
S'\x00\x00\x00\x00\x00\x00\xf0?'
tbag65
(g66
(I0
tS'b'
tRp1439
(I1
(tg69
I00
S'\x00\x00\x00\x00\x00\x00\xf0?'
tbag65
(g66
(I0
tS'b'
tRp1440
(I1
(tg69
I00
S'\x00\x00\x00\x00\x00\x00\xf0?'
tbasg321
(lp1441
I0
aI2781
aI5562
aI8343
aI11124
aI13905
aI16686
asg323
(lp1442
F14.135289192199707
aF18.331549167633057
aF22.243813037872314
aF26.076045036315918
aF29.976580142974854
aF33.630591154098511
aF37.268989086151123
asg325
(lp1443
I0
aI278035
aI556070
aI834105
aI1112140
aI1390175
aI1668210
asbaa(lp1444
S'valid_h0_max_x_min_u'
p1445
ag1
(g306
g3
NtRp1446
(dp1447
g309
(lp1448
I0
aI1
aI2
aI3
aI4
aI5
aI6
asg311
g468
sg312
(lp1449
g65
(g66
(I0
tS'b'
tRp1450
(I1
(tg69
I00
S'\x8aX\xf3\xd5\xb8\t\xa1?'
tbag65
(g66
(I0
tS'b'
tRp1451
(I1
(tg69
I00
S'\x8aX\xf3\xd5\xb8\t\xa1?'
tbag65
(g66
(I0
tS'b'
tRp1452
(I1
(tg69
I00
S'\x8aX\xf3\xd5\xb8\t\xa1?'
tbag65
(g66
(I0
tS'b'
tRp1453
(I1
(tg69
I00
S'\x8aX\xf3\xd5\xb8\t\xa1?'
tbag65
(g66
(I0
tS'b'
tRp1454
(I1
(tg69
I00
S'\x8aX\xf3\xd5\xb8\t\xa1?'
tbag65
(g66
(I0
tS'b'
tRp1455
(I1
(tg69
I00
S'\x8aX\xf3\xd5\xb8\t\xa1?'
tbag65
(g66
(I0
tS'b'
tRp1456
(I1
(tg69
I00
S'\x8aX\xf3\xd5\xb8\t\xa1?'
tbasg321
(lp1457
I0
aI2781
aI5562
aI8343
aI11124
aI13905
aI16686
asg323
(lp1458
F14.135289192199707
aF18.331549167633057
aF22.243813037872314
aF26.076045036315918
aF29.976580142974854
aF33.630591154098511
aF37.268989086151123
asg325
(lp1459
I0
aI278035
aI556070
aI834105
aI1112140
aI1390175
aI1668210
asbaa(lp1460
S'valid_h0_row_norms_min'
p1461
ag1
(g306
g3
NtRp1462
(dp1463
g309
(lp1464
I0
aI1
aI2
aI3
aI4
aI5
aI6
asg311
g485
sg312
(lp1465
g65
(g66
(I0
tS'b'
tRp1466
(I1
(tg69
I00
S'azV\x99\xab\x07\xee?'
tbag65
(g66
(I0
tS'b'
tRp1467
(I1
(tg69
I00
S'0\xcf\xa7\xfe\xac\x07\xee?'
tbag65
(g66
(I0
tS'b'
tRp1468
(I1
(tg69
I00
S' $\x9e\xfe\xac\x07\xee?'
tbag65
(g66
(I0
tS'b'
tRp1469
(I1
(tg69
I00
S'\xb2\x11\x95\xfe\xac\x07\xee?'
tbag65
(g66
(I0
tS'b'
tRp1470
(I1
(tg69
I00
S'3x\x8c\xfe\xac\x07\xee?'
tbag65
(g66
(I0
tS'b'
tRp1471
(I1
(tg69
I00
S'\x08\xb5\x83\xfe\xac\x07\xee?'
tbag65
(g66
(I0
tS'b'
tRp1472
(I1
(tg69
I00
S'\xf0\xf7z\xfe\xac\x07\xee?'
tbasg321
(lp1473
I0
aI2781
aI5562
aI8343
aI11124
aI13905
aI16686
asg323
(lp1474
F14.135289192199707
aF18.331549167633057
aF22.243813037872314
aF26.076045036315918
aF29.976580142974854
aF33.630591154098511
aF37.268989086151123
asg325
(lp1475
I0
aI278035
aI556070
aI834105
aI1112140
aI1390175
aI1668210
asbaa(lp1476
S'valid_y_row_norms_max'
p1477
ag1
(g306
g3
NtRp1478
(dp1479
g309
(lp1480
I0
aI1
aI2
aI3
aI4
aI5
aI6
asg311
g502
sg312
(lp1481
g65
(g66
(I0
tS'b'
tRp1482
(I1
(tg69
I00
S'\x00\x00\x00\x00\x00\x00\x00\x00'
tbag65
(g66
(I0
tS'b'
tRp1483
(I1
(tg69
I00
S'\xb0\x82`&\xeb(\xbe?'
tbag65
(g66
(I0
tS'b'
tRp1484
(I1
(tg69
I00
S'\xa9\xfdz*\xe01\xc2?'
tbag65
(g66
(I0
tS'b'
tRp1485
(I1
(tg69
I00
S'\xe37\xe1q\x89\t\xc2?'
tbag65
(g66
(I0
tS'b'
tRp1486
(I1
(tg69
I00
S'\x10\xf6r\xe9\xb7\xc1\xc4?'
tbag65
(g66
(I0
tS'b'
tRp1487
(I1
(tg69
I00
S'\x9aZa\xaa>\xa9\xc6?'
tbag65
(g66
(I0
tS'b'
tRp1488
(I1
(tg69
I00
S'\xfb\xe6(C\\\xd4\xc3?'
tbasg321
(lp1489
I0
aI2781
aI5562
aI8343
aI11124
aI13905
aI16686
asg323
(lp1490
F14.135289192199707
aF18.331549167633057
aF22.243813037872314
aF26.076045036315918
aF29.976580142974854
aF33.630591154098511
aF37.268989086151123
asg325
(lp1491
I0
aI278035
aI556070
aI834105
aI1112140
aI1390175
aI1668210
asbaa(lp1492
S'valid_y_misclass'
p1493
ag1
(g306
g3
NtRp1494
(dp1495
g309
(lp1496
I0
aI1
aI2
aI3
aI4
aI5
aI6
asg311
g519
sg312
(lp1497
g262
ag65
(g66
(I0
tS'b'
tRp1498
(I1
(tg69
I00
S'\x06\xf1\x1d\xc4w\x10\xef?'
tbag65
(g66
(I0
tS'b'
tRp1499
(I1
(tg69
I00
S'\x06\xf1\x1d\xc4w\x10\xef?'
tbag65
(g66
(I0
tS'b'
tRp1500
(I1
(tg69
I00
S'\x06\xf1\x1d\xc4w\x10\xef?'
tbag65
(g66
(I0
tS'b'
tRp1501
(I1
(tg69
I00
S'\x06\xf1\x1d\xc4w\x10\xef?'
tbag65
(g66
(I0
tS'b'
tRp1502
(I1
(tg69
I00
S'\x06\xf1\x1d\xc4w\x10\xef?'
tbag65
(g66
(I0
tS'b'
tRp1503
(I1
(tg69
I00
S'\x06\xf1\x1d\xc4w\x10\xef?'
tbasg321
(lp1504
I0
aI2781
aI5562
aI8343
aI11124
aI13905
aI16686
asg323
(lp1505
F14.135289192199707
aF18.331549167633057
aF22.243813037872314
aF26.076045036315918
aF29.976580142974854
aF33.630591154098511
aF37.268989086151123
asg325
(lp1506
I0
aI278035
aI556070
aI834105
aI1112140
aI1390175
aI1668210
asbaa(lp1507
S'valid_h0_min_x_min_u'
p1508
ag1
(g306
g3
NtRp1509
(dp1510
g309
(lp1511
I0
aI1
aI2
aI3
aI4
aI5
aI6
asg311
g536
sg312
(lp1512
g65
(g66
(I0
tS'b'
tRp1513
(I1
(tg69
I00
S'\xac\x04\x05\x05Z]s7'
tbag65
(g66
(I0
tS'b'
tRp1514
(I1
(tg69
I00
S'\x04\x8b\x05\x05Z]s7'
tbag65
(g66
(I0
tS'b'
tRp1515
(I1
(tg69
I00
S'\x82#\x06\x05Z]s7'
tbag65
(g66
(I0
tS'b'
tRp1516
(I1
(tg69
I00
S'x\xf2\x06\x05Z]s7'
tbag65
(g66
(I0
tS'b'
tRp1517
(I1
(tg69
I00
S'\x10\\\x07\x05Z]s7'
tbag65
(g66
(I0
tS'b'
tRp1518
(I1
(tg69
I00
S'\xf38\x08\x05Z]s7'
tbag65
(g66
(I0
tS'b'
tRp1519
(I1
(tg69
I00
S'\x12y\t\x05Z]s7'
tbasg321
(lp1520
I0
aI2781
aI5562
aI8343
aI11124
aI13905
aI16686
asg323
(lp1521
F14.135289192199707
aF18.331549167633057
aF22.243813037872314
aF26.076045036315918
aF29.976580142974854
aF33.630591154098511
aF37.268989086151123
asg325
(lp1522
I0
aI278035
aI556070
aI834105
aI1112140
aI1390175
aI1668210
asbaa(lp1523
S'valid_y_mean_max_class'
p1524
ag1
(g306
g3
NtRp1525
(dp1526
g309
(lp1527
I0
aI1
aI2
aI3
aI4
aI5
aI6
asg311
g553
sg312
(lp1528
g65
(g66
(I0
tS'b'
tRp1529
(I1
(tg69
I00
S'\x00\x00\x00\x00\x00\x00\xe0?'
tbag65
(g66
(I0
tS'b'
tRp1530
(I1
(tg69
I00
S'\x01\xff5\x1a\xa5\x88\xe6?'
tbag65
(g66
(I0
tS'b'
tRp1531
(I1
(tg69
I00
S'Xx8a\xaa\xaf\xe7?'
tbag65
(g66
(I0
tS'b'
tRp1532
(I1
(tg69
I00
S'\xa4U\xde\xe0\x1b\xce\xe6?'
tbag65
(g66
(I0
tS'b'
tRp1533
(I1
(tg69
I00
S'F\xb2X\x8bx\xcc\xe7?'
tbag65
(g66
(I0
tS'b'
tRp1534
(I1
(tg69
I00
S'lkS\xf7\xd7\xc0\xe7?'
tbag65
(g66
(I0
tS'b'
tRp1535
(I1
(tg69
I00
S'\x9e\xd8\xdew\x0fU\xe6?'
tbasg321
(lp1536
I0
aI2781
aI5562
aI8343
aI11124
aI13905
aI16686
asg323
(lp1537
F14.135289192199707
aF18.331549167633057
aF22.243813037872314
aF26.076045036315918
aF29.976580142974854
aF33.630591154098511
aF37.268989086151123
asg325
(lp1538
I0
aI278035
aI556070
aI834105
aI1112140
aI1390175
aI1668210
asbaa(lp1539
S'valid_h0_row_norms_mean'
p1540
ag1
(g306
g3
NtRp1541
(dp1542
g309
(lp1543
I0
aI1
aI2
aI3
aI4
aI5
aI6
asg311
g570
sg312
(lp1544
g65
(g66
(I0
tS'b'
tRp1545
(I1
(tg69
I00
S'\x95e\xc6\xdb\xe3\x8f\x01@'
tbag65
(g66
(I0
tS'b'
tRp1546
(I1
(tg69
I00
S'\xc4\xe1\xabr\xda\x8f\x01@'
tbag65
(g66
(I0
tS'b'
tRp1547
(I1
(tg69
I00
S'\x00:\xa9r\xda\x8f\x01@'
tbag65
(g66
(I0
tS'b'
tRp1548
(I1
(tg69
I00
S')\xbc\xa6r\xda\x8f\x01@'
tbag65
(g66
(I0
tS'b'
tRp1549
(I1
(tg69
I00
S'\x89_\xa4r\xda\x8f\x01@'
tbag65
(g66
(I0
tS'b'
tRp1550
(I1
(tg69
I00
S'v\xf7\xa1r\xda\x8f\x01@'
tbag65
(g66
(I0
tS'b'
tRp1551
(I1
(tg69
I00
S'\x13\x91\x9fr\xda\x8f\x01@'
tbasg321
(lp1552
I0
aI2781
aI5562
aI8343
aI11124
aI13905
aI16686
asg323
(lp1553
F14.135289192199707
aF18.331549167633057
aF22.243813037872314
aF26.076045036315918
aF29.976580142974854
aF33.630591154098511
aF37.268989086151123
asg325
(lp1554
I0
aI278035
aI556070
aI834105
aI1112140
aI1390175
aI1668210
asbaa(lp1555
S'valid_h0_col_norms_max'
p1556
ag1
(g306
g3
NtRp1557
(dp1558
g309
(lp1559
I0
aI1
aI2
aI3
aI4
aI5
aI6
asg311
g587
sg312
(lp1560
g65
(g66
(I0
tS'b'
tRp1561
(I1
(tg69
I00
S'\xa5\xa9\xf5,\xb1\xf1\x0b@'
tbag65
(g66
(I0
tS'b'
tRp1562
(I1
(tg69
I00
S'\xa5\xa9\xf5,\xb1\xf1\x0b@'
tbag65
(g66
(I0
tS'b'
tRp1563
(I1
(tg69
I00
S'\xa5\xa9\xf5,\xb1\xf1\x0b@'
tbag65
(g66
(I0
tS'b'
tRp1564
(I1
(tg69
I00
S'\xa8\xa9\xf5,\xb1\xf1\x0b@'
tbag65
(g66
(I0
tS'b'
tRp1565
(I1
(tg69
I00
S'\xaa\xa9\xf5,\xb1\xf1\x0b@'
tbag65
(g66
(I0
tS'b'
tRp1566
(I1
(tg69
I00
S'\xaa\xa9\xf5,\xb1\xf1\x0b@'
tbag65
(g66
(I0
tS'b'
tRp1567
(I1
(tg69
I00
S'\xae\xa9\xf5,\xb1\xf1\x0b@'
tbasg321
(lp1568
I0
aI2781
aI5562
aI8343
aI11124
aI13905
aI16686
asg323
(lp1569
F14.135289192199707
aF18.331549167633057
aF22.243813037872314
aF26.076045036315918
aF29.976580142974854
aF33.630591154098511
aF37.268989086151123
asg325
(lp1570
I0
aI278035
aI556070
aI834105
aI1112140
aI1390175
aI1668210
asbaa(lp1571
S'valid_h0_mean_x_mean_u'
p1572
ag1
(g306
g3
NtRp1573
(dp1574
g309
(lp1575
I0
aI1
aI2
aI3
aI4
aI5
aI6
asg311
g604
sg312
(lp1576
g65
(g66
(I0
tS'b'
tRp1577
(I1
(tg69
I00
S'R\x85\xf1<\xdb\xac\xe3?'
tbag65
(g66
(I0
tS'b'
tRp1578
(I1
(tg69
I00
S'\xe0Mg\x93[\xad\xe3?'
tbag65
(g66
(I0
tS'b'
tRp1579
(I1
(tg69
I00
S'\x08\x9f]\x93[\xad\xe3?'
tbag65
(g66
(I0
tS'b'
tRp1580
(I1
(tg69
I00
S'$\x89T\x93[\xad\xe3?'
tbag65
(g66
(I0
tS'b'
tRp1581
(I1
(tg69
I00
S'@\xecK\x93[\xad\xe3?'
tbag65
(g66
(I0
tS'b'
tRp1582
(I1
(tg69
I00
S'\xc0%C\x93[\xad\xe3?'
tbag65
(g66
(I0
tS'b'
tRp1583
(I1
(tg69
I00
S'{e:\x93[\xad\xe3?'
tbasg321
(lp1584
I0
aI2781
aI5562
aI8343
aI11124
aI13905
aI16686
asg323
(lp1585
F14.135289192199707
aF18.331549167633057
aF22.243813037872314
aF26.076045036315918
aF29.976580142974854
aF33.630591154098511
aF37.268989086151123
asg325
(lp1586
I0
aI278035
aI556070
aI834105
aI1112140
aI1390175
aI1668210
asbaa(lp1587
S'valid_y_row_norms_min'
p1588
ag1
(g306
g3
NtRp1589
(dp1590
g309
(lp1591
I0
aI1
aI2
aI3
aI4
aI5
aI6
asg311
g621
sg312
(lp1592
g65
(g66
(I0
tS'b'
tRp1593
(I1
(tg69
I00
S'\x00\x00\x00\x00\x00\x00\x00\x00'
tbag65
(g66
(I0
tS'b'
tRp1594
(I1
(tg69
I00
S'\x9b\r\xa6\xc3h\x02\x85?'
tbag65
(g66
(I0
tS'b'
tRp1595
(I1
(tg69
I00
S'\x15+\\t\x9bI\x97?'
tbag65
(g66
(I0
tS'b'
tRp1596
(I1
(tg69
I00
S'_Y\xe9C\xf1\xf27?'
tbag65
(g66
(I0
tS'b'
tRp1597
(I1
(tg69
I00
S'\x8d\xa4P\xdc\xdf\x1f\xa0?'
tbag65
(g66
(I0
tS'b'
tRp1598
(I1
(tg69
I00
S'\x1c3\xa4\xff\xf9\xd9\x8f?'
tbag65
(g66
(I0
tS'b'
tRp1599
(I1
(tg69
I00
S'\x1f\xb2Q\xe5V\t\x83?'
tbasg321
(lp1600
I0
aI2781
aI5562
aI8343
aI11124
aI13905
aI16686
asg323
(lp1601
F14.135289192199707
aF18.331549167633057
aF22.243813037872314
aF26.076045036315918
aF29.976580142974854
aF33.630591154098511
aF37.268989086151123
asg325
(lp1602
I0
aI278035
aI556070
aI834105
aI1112140
aI1390175
aI1668210
asbaa(lp1603
S'valid_h0_mean_x_min_u'
p1604
ag1
(g306
g3
NtRp1605
(dp1606
g309
(lp1607
I0
aI1
aI2
aI3
aI4
aI5
aI6
asg311
g638
sg312
(lp1608
g65
(g66
(I0
tS'b'
tRp1609
(I1
(tg69
I00
S'\xbb\x81r\x8bi\ns?'
tbag65
(g66
(I0
tS'b'
tRp1610
(I1
(tg69
I00
S'\xbb\x81r\x8bi\ns?'
tbag65
(g66
(I0
tS'b'
tRp1611
(I1
(tg69
I00
S'\xbb\x81r\x8bi\ns?'
tbag65
(g66
(I0
tS'b'
tRp1612
(I1
(tg69
I00
S'\xbb\x81r\x8bi\ns?'
tbag65
(g66
(I0
tS'b'
tRp1613
(I1
(tg69
I00
S'\xbb\x81r\x8bi\ns?'
tbag65
(g66
(I0
tS'b'
tRp1614
(I1
(tg69
I00
S'\xbb\x81r\x8bi\ns?'
tbag65
(g66
(I0
tS'b'
tRp1615
(I1
(tg69
I00
S'\xbb\x81r\x8bi\ns?'
tbasg321
(lp1616
I0
aI2781
aI5562
aI8343
aI11124
aI13905
aI16686
asg323
(lp1617
F14.135289192199707
aF18.331549167633057
aF22.243813037872314
aF26.076045036315918
aF29.976580142974854
aF33.630591154098511
aF37.268989086151123
asg325
(lp1618
I0
aI278035
aI556070
aI834105
aI1112140
aI1390175
aI1668210
asbaa(lp1619
S'valid_h0_max_x_mean_u'
p1620
ag1
(g306
g3
NtRp1621
(dp1622
g309
(lp1623
I0
aI1
aI2
aI3
aI4
aI5
aI6
asg311
g655
sg312
(lp1624
g65
(g66
(I0
tS'b'
tRp1625
(I1
(tg69
I00
S'y\xac1A\x04\xe8\xec?'
tbag65
(g66
(I0
tS'b'
tRp1626
(I1
(tg69
I00
S'y\xac1A\x04\xe8\xec?'
tbag65
(g66
(I0
tS'b'
tRp1627
(I1
(tg69
I00
S'y\xac1A\x04\xe8\xec?'
tbag65
(g66
(I0
tS'b'
tRp1628
(I1
(tg69
I00
S'y\xac1A\x04\xe8\xec?'
tbag65
(g66
(I0
tS'b'
tRp1629
(I1
(tg69
I00
S'y\xac1A\x04\xe8\xec?'
tbag65
(g66
(I0
tS'b'
tRp1630
(I1
(tg69
I00
S'y\xac1A\x04\xe8\xec?'
tbag65
(g66
(I0
tS'b'
tRp1631
(I1
(tg69
I00
S'y\xac1A\x04\xe8\xec?'
tbasg321
(lp1632
I0
aI2781
aI5562
aI8343
aI11124
aI13905
aI16686
asg323
(lp1633
F14.135289192199707
aF18.331549167633057
aF22.243813037872314
aF26.076045036315918
aF29.976580142974854
aF33.630591154098511
aF37.268989086151123
asg325
(lp1634
I0
aI278035
aI556070
aI834105
aI1112140
aI1390175
aI1668210
asbaa(lp1635
S'valid_y_col_norms_mean'
p1636
ag1
(g306
g3
NtRp1637
(dp1638
g309
(lp1639
I0
aI1
aI2
aI3
aI4
aI5
aI6
asg311
g672
sg312
(lp1640
g65
(g66
(I0
tS'b'
tRp1641
(I1
(tg69
I00
S'\x00\x00\x00\x00\x00\x00\x00\x00'
tbag65
(g66
(I0
tS'b'
tRp1642
(I1
(tg69
I00
S'\x00\x91l\xf3\x83p\xc5?'
tbag65
(g66
(I0
tS'b'
tRp1643
(I1
(tg69
I00
S'\xbe\x11\x02\xdc\x9e\xf1\xc8?'
tbag65
(g66
(I0
tS'b'
tRp1644
(I1
(tg69
I00
S'\x00\x1c,+\xf8D\xc7?'
tbag65
(g66
(I0
tS'b'
tRp1645
(I1
(tg69
I00
S'B2\x16\xc6\x80\xd8\xca?'
tbag65
(g66
(I0
tS'b'
tRp1646
(I1
(tg69
I00
S'\xaf\xb0&]\x86\xb2\xcc?'
tbag65
(g66
(I0
tS'b'
tRp1647
(I1
(tg69
I00
S'S\x85F\xc6@\r\xc9?'
tbasg321
(lp1648
I0
aI2781
aI5562
aI8343
aI11124
aI13905
aI16686
asg323
(lp1649
F14.135289192199707
aF18.331549167633057
aF22.243813037872314
aF26.076045036315918
aF29.976580142974854
aF33.630591154098511
aF37.268989086151123
asg325
(lp1650
I0
aI278035
aI556070
aI834105
aI1112140
aI1390175
aI1668210
asbaa(lp1651
S'valid_y_max_max_class'
p1652
ag1
(g306
g3
NtRp1653
(dp1654
g309
(lp1655
I0
aI1
aI2
aI3
aI4
aI5
aI6
asg311
g689
sg312
(lp1656
g65
(g66
(I0
tS'b'
tRp1657
(I1
(tg69
I00
S'\x00\x00\x00\x00\x00\x00\xe0?'
tbag65
(g66
(I0
tS'b'
tRp1658
(I1
(tg69
I00
S'<;\x13\xe4\r\xd0\xe6?'
tbag65
(g66
(I0
tS'b'
tRp1659
(I1
(tg69
I00
S' \x16yU\x81\xe8\xe7?'
tbag65
(g66
(I0
tS'b'
tRp1660
(I1
(tg69
I00
S'\x18X\xb2\x88\xc1;\xe7?'
tbag65
(g66
(I0
tS'b'
tRp1661
(I1
(tg69
I00
S'/\xc6Z\x03*)\xe8?'
tbag65
(g66
(I0
tS'b'
tRp1662
(I1
(tg69
I00
S'\x98\x8bv\xdc\x13m\xe8?'
tbag65
(g66
(I0
tS'b'
tRp1663
(I1
(tg69
I00
S'P\xb0\xcb\xb2\xb2\xd4\xe6?'
tbasg321
(lp1664
I0
aI2781
aI5562
aI8343
aI11124
aI13905
aI16686
asg323
(lp1665
F14.135289192199707
aF18.331549167633057
aF22.243813037872314
aF26.076045036315918
aF29.976580142974854
aF33.630591154098511
aF37.268989086151123
asg325
(lp1666
I0
aI278035
aI556070
aI834105
aI1112140
aI1390175
aI1668210
asbaa(lp1667
S'valid_h0_col_norms_mean'
p1668
ag1
(g306
g3
NtRp1669
(dp1670
g309
(lp1671
I0
aI1
aI2
aI3
aI4
aI5
aI6
asg311
g706
sg312
(lp1672
g65
(g66
(I0
tS'b'
tRp1673
(I1
(tg69
I00
S'w\xcc\xe7\x02\xfe\xb4\x01@'
tbag65
(g66
(I0
tS'b'
tRp1674
(I1
(tg69
I00
S'\x12v\xc9\x17\xfe\xb4\x01@'
tbag65
(g66
(I0
tS'b'
tRp1675
(I1
(tg69
I00
S'G\x94\xc9\x17\xfe\xb4\x01@'
tbag65
(g66
(I0
tS'b'
tRp1676
(I1
(tg69
I00
S'\xa0\xb0\xc9\x17\xfe\xb4\x01@'
tbag65
(g66
(I0
tS'b'
tRp1677
(I1
(tg69
I00
S'\x82\xcb\xc9\x17\xfe\xb4\x01@'
tbag65
(g66
(I0
tS'b'
tRp1678
(I1
(tg69
I00
S'\xe4\xe6\xc9\x17\xfe\xb4\x01@'
tbag65
(g66
(I0
tS'b'
tRp1679
(I1
(tg69
I00
S'6\x02\xca\x17\xfe\xb4\x01@'
tbasg321
(lp1680
I0
aI2781
aI5562
aI8343
aI11124
aI13905
aI16686
asg323
(lp1681
F14.135289192199707
aF18.331549167633057
aF22.243813037872314
aF26.076045036315918
aF29.976580142974854
aF33.630591154098511
aF37.268989086151123
asg325
(lp1682
I0
aI278035
aI556070
aI834105
aI1112140
aI1390175
aI1668210
asbaa(lp1683
S'valid_y_min_max_class'
p1684
ag1
(g306
g3
NtRp1685
(dp1686
g309
(lp1687
I0
aI1
aI2
aI3
aI4
aI5
aI6
asg311
g723
sg312
(lp1688
g65
(g66
(I0
tS'b'
tRp1689
(I1
(tg69
I00
S'\x00\x00\x00\x00\x00\x00\xe0?'
tbag65
(g66
(I0
tS'b'
tRp1690
(I1
(tg69
I00
S'W\xc32\xbb9Q\xe5?'
tbag65
(g66
(I0
tS'b'
tRp1691
(I1
(tg69
I00
S'X\r\xf0\xbdY\x86\xe6?'
tbag65
(g66
(I0
tS'b'
tRp1692
(I1
(tg69
I00
S'\xca\xef\xa2\xfe)9\xe5?'
tbag65
(g66
(I0
tS'b'
tRp1693
(I1
(tg69
I00
S'D%\xf8\xf9\xa2N\xe6?'
tbag65
(g66
(I0
tS'b'
tRp1694
(I1
(tg69
I00
S',\xa6o\xca\x93\xd9\xe5?'
tbag65
(g66
(I0
tS'b'
tRp1695
(I1
(tg69
I00
S'\x7f\xf6\x07\xcdA\x0e\xe4?'
tbasg321
(lp1696
I0
aI2781
aI5562
aI8343
aI11124
aI13905
aI16686
asg323
(lp1697
F14.135289192199707
aF18.331549167633057
aF22.243813037872314
aF26.076045036315918
aF29.976580142974854
aF33.630591154098511
aF37.268989086151123
asg325
(lp1698
I0
aI278035
aI556070
aI834105
aI1112140
aI1390175
aI1668210
asbaa(lp1699
S'valid_y_row_norms_mean'
p1700
ag1
(g306
g3
NtRp1701
(dp1702
g309
(lp1703
I0
aI1
aI2
aI3
aI4
aI5
aI6
asg311
g740
sg312
(lp1704
g65
(g66
(I0
tS'b'
tRp1705
(I1
(tg69
I00
S'\x00\x00\x00\x00\x00\x00\x00\x00'
tbag65
(g66
(I0
tS'b'
tRp1706
(I1
(tg69
I00
S'\xbb/\n\x1e\xd2\xb1\xae?'
tbag65
(g66
(I0
tS'b'
tRp1707
(I1
(tg69
I00
S'N\xa0\xe1\xe4\xe8\x1d\xb3?'
tbag65
(g66
(I0
tS'b'
tRp1708
(I1
(tg69
I00
S'ie\x15\xcb\xdf\xd5\xb1?'
tbag65
(g66
(I0
tS'b'
tRp1709
(I1
(tg69
I00
S'U\x90\xb5\xc1\xe8\xcb\xb5?'
tbag65
(g66
(I0
tS'b'
tRp1710
(I1
(tg69
I00
S'\\\x82\xcd\r\xdc\xea\xb6?'
tbag65
(g66
(I0
tS'b'
tRp1711
(I1
(tg69
I00
S'4\x05\xb0\xa9\xc1\x98\xb3?'
tbasg321
(lp1712
I0
aI2781
aI5562
aI8343
aI11124
aI13905
aI16686
asg323
(lp1713
F14.135289192199707
aF18.331549167633057
aF22.243813037872314
aF26.076045036315918
aF29.976580142974854
aF33.630591154098511
aF37.268989086151123
asg325
(lp1714
I0
aI278035
aI556070
aI834105
aI1112140
aI1390175
aI1668210
asbaa(lp1715
S'valid_h0_row_norms_max'
p1716
ag1
(g306
g3
NtRp1717
(dp1718
g309
(lp1719
I0
aI1
aI2
aI3
aI4
aI5
aI6
asg311
g757
sg312
(lp1720
g65
(g66
(I0
tS'b'
tRp1721
(I1
(tg69
I00
S'A+p\x95|f\x08@'
tbag65
(g66
(I0
tS'b'
tRp1722
(I1
(tg69
I00
S'\xf4,<\xda}f\x08@'
tbag65
(g66
(I0
tS'b'
tRp1723
(I1
(tg69
I00
S'\x98,<\xda}f\x08@'
tbag65
(g66
(I0
tS'b'
tRp1724
(I1
(tg69
I00
S' ,<\xda}f\x08@'
tbag65
(g66
(I0
tS'b'
tRp1725
(I1
(tg69
I00
S'\xe2+<\xda}f\x08@'
tbag65
(g66
(I0
tS'b'
tRp1726
(I1
(tg69
I00
S'Z+<\xda}f\x08@'
tbag65
(g66
(I0
tS'b'
tRp1727
(I1
(tg69
I00
S'\x9b*<\xda}f\x08@'
tbasg321
(lp1728
I0
aI2781
aI5562
aI8343
aI11124
aI13905
aI16686
asg323
(lp1729
F14.135289192199707
aF18.331549167633057
aF22.243813037872314
aF26.076045036315918
aF29.976580142974854
aF33.630591154098511
aF37.268989086151123
asg325
(lp1730
I0
aI278035
aI556070
aI834105
aI1112140
aI1390175
aI1668210
asbaa(lp1731
S'valid_h0_max_x_max_u'
p1732
ag1
(g306
g3
NtRp1733
(dp1734
g309
(lp1735
I0
aI1
aI2
aI3
aI4
aI5
aI6
asg311
g774
sg312
(lp1736
g65
(g66
(I0
tS'b'
tRp1737
(I1
(tg69
I00
S'\x00\x00\x00\x00\x00\x00\xf0?'
tbag65
(g66
(I0
tS'b'
tRp1738
(I1
(tg69
I00
S'\x00\x00\x00\x00\x00\x00\xf0?'
tbag65
(g66
(I0
tS'b'
tRp1739
(I1
(tg69
I00
S'\x00\x00\x00\x00\x00\x00\xf0?'
tbag65
(g66
(I0
tS'b'
tRp1740
(I1
(tg69
I00
S'\x00\x00\x00\x00\x00\x00\xf0?'
tbag65
(g66
(I0
tS'b'
tRp1741
(I1
(tg69
I00
S'\x00\x00\x00\x00\x00\x00\xf0?'
tbag65
(g66
(I0
tS'b'
tRp1742
(I1
(tg69
I00
S'\x00\x00\x00\x00\x00\x00\xf0?'
tbag65
(g66
(I0
tS'b'
tRp1743
(I1
(tg69
I00
S'\x00\x00\x00\x00\x00\x00\xf0?'
tbasg321
(lp1744
I0
aI2781
aI5562
aI8343
aI11124
aI13905
aI16686
asg323
(lp1745
F14.135289192199707
aF18.331549167633057
aF22.243813037872314
aF26.076045036315918
aF29.976580142974854
aF33.630591154098511
aF37.268989086151123
asg325
(lp1746
I0
aI278035
aI556070
aI834105
aI1112140
aI1390175
aI1668210
asbaa(lp1747
S'valid_y_col_norms_min'
p1748
ag1
(g306
g3
NtRp1749
(dp1750
g309
(lp1751
I0
aI1
aI2
aI3
aI4
aI5
aI6
asg311
g791
sg312
(lp1752
g65
(g66
(I0
tS'b'
tRp1753
(I1
(tg69
I00
S'\x00\x00\x00\x00\x00\x00\x00\x00'
tbag65
(g66
(I0
tS'b'
tRp1754
(I1
(tg69
I00
S'\xf5\x90l\xf3\x83p\xc5?'
tbag65
(g66
(I0
tS'b'
tRp1755
(I1
(tg69
I00
S'\xb9\x11\x02\xdc\x9e\xf1\xc8?'
tbag65
(g66
(I0
tS'b'
tRp1756
(I1
(tg69
I00
S'\xfc\x1b,+\xf8D\xc7?'
tbag65
(g66
(I0
tS'b'
tRp1757
(I1
(tg69
I00
S'@2\x16\xc6\x80\xd8\xca?'
tbag65
(g66
(I0
tS'b'
tRp1758
(I1
(tg69
I00
S'\xa6\xb0&]\x86\xb2\xcc?'
tbag65
(g66
(I0
tS'b'
tRp1759
(I1
(tg69
I00
S'J\x85F\xc6@\r\xc9?'
tbasg321
(lp1760
I0
aI2781
aI5562
aI8343
aI11124
aI13905
aI16686
asg323
(lp1761
F14.135289192199707
aF18.331549167633057
aF22.243813037872314
aF26.076045036315918
aF29.976580142974854
aF33.630591154098511
aF37.268989086151123
asg325
(lp1762
I0
aI278035
aI556070
aI834105
aI1112140
aI1390175
aI1668210
asbaa(lp1763
S'valid_h0_col_norms_min'
p1764
ag1
(g306
g3
NtRp1765
(dp1766
g309
(lp1767
I0
aI1
aI2
aI3
aI4
aI5
aI6
asg311
g808
sg312
(lp1768
g65
(g66
(I0
tS'b'
tRp1769
(I1
(tg69
I00
S'\xe4\x00?"L\xbd\xf2?'
tbag65
(g66
(I0
tS'b'
tRp1770
(I1
(tg69
I00
S'\xe4\x00?"L\xbd\xf2?'
tbag65
(g66
(I0
tS'b'
tRp1771
(I1
(tg69
I00
S'\xe4\x00?"L\xbd\xf2?'
tbag65
(g66
(I0
tS'b'
tRp1772
(I1
(tg69
I00
S'\xe4\x00?"L\xbd\xf2?'
tbag65
(g66
(I0
tS'b'
tRp1773
(I1
(tg69
I00
S'\xe4\x00?"L\xbd\xf2?'
tbag65
(g66
(I0
tS'b'
tRp1774
(I1
(tg69
I00
S'\xe4\x00?"L\xbd\xf2?'
tbag65
(g66
(I0
tS'b'
tRp1775
(I1
(tg69
I00
S'\xe4\x00?"L\xbd\xf2?'
tbasg321
(lp1776
I0
aI2781
aI5562
aI8343
aI11124
aI13905
aI16686
asg323
(lp1777
F14.135289192199707
aF18.331549167633057
aF22.243813037872314
aF26.076045036315918
aF29.976580142974854
aF33.630591154098511
aF37.268989086151123
asg325
(lp1778
I0
aI278035
aI556070
aI834105
aI1112140
aI1390175
aI1668210
asbaa(lp1779
S'learning_rate'
p1780
ag1
(g306
g3
NtRp1781
(dp1782
g309
(lp1783
I0
aI1
aI2
aI3
aI4
aI5
aI6
asg311
Nsg312
(lp1784
g65
(g66
(I0
tS'b'
tRp1785
(I1
(tg69
I00
S'\x99\x99\x99\x99\x99\x99\xb9?'
tbag65
(g66
(I0
tS'b'
tRp1786
(I1
(tg69
I00
S'\x99\x99\x99\x99\x99\x99\xb9?'
tbag65
(g66
(I0
tS'b'
tRp1787
(I1
(tg69
I00
S'\x99\x99\x99\x99\x99\x99\xb9?'
tbag65
(g66
(I0
tS'b'
tRp1788
(I1
(tg69
I00
S'\x99\x99\x99\x99\x99\x99\xb9?'
tbag65
(g66
(I0
tS'b'
tRp1789
(I1
(tg69
I00
S'\x99\x99\x99\x99\x99\x99\xb9?'
tbag65
(g66
(I0
tS'b'
tRp1790
(I1
(tg69
I00
S'\x99\x99\x99\x99\x99\x99\xb9?'
tbag65
(g66
(I0
tS'b'
tRp1791
(I1
(tg69
I00
S'\x99\x99\x99\x99\x99\x99\xb9?'
tbasg321
(lp1792
I0
aI2781
aI5562
aI8343
aI11124
aI13905
aI16686
asg323
(lp1793
F14.135289192199707
aF18.331549167633057
aF22.243813037872314
aF26.076045036315918
aF29.976580142974854
aF33.630591154098511
aF37.268989086151123
asg325
(lp1794
I0
aI278035
aI556070
aI834105
aI1112140
aI1390175
aI1668210
asbaa(lp1795
S'training_seconds_this_epoch'
p1796
ag1
(g306
g3
NtRp1797
(dp1798
g309
(lp1799
I0
aI1
aI2
aI3
aI4
aI5
aI6
asg311
S'The number of seconds that were spent in actual training during the most\nrecent epoch. This excludes seconds that were spent running callbacks for\nthe extensions, computing monitoring channels, etc.'
p1800
sg312
(lp1801
g65
(g66
(I0
tS'b'
tRp1802
(I1
(tg69
I00
S'\x00\x00\x00\x00\x00\x00\x00\x00'
tbag65
(g66
(I0
tS'b'
tRp1803
(I1
(tg69
I00
S'<K\x90\x11P\x01\x00@'
tbag65
(g66
(I0
tS'b'
tRp1804
(I1
(tg69
I00
S'8\xb4\xc8v\xbe\x1f\xfa?'
tbag65
(g66
(I0
tS'b'
tRp1805
(I1
(tg69
I00
S'\x08Z\x81!\xab\x9b\x00@'
tbag65
(g66
(I0
tS'b'
tRp1806
(I1
(tg69
I00
S'\x12\x12i\x1b\x7f\xe2\xfd?'
tbag65
(g66
(I0
tS'b'
tRp1807
(I1
(tg69
I00
S'\x00jj\xd9Z\x1f\xfc?'
tbag65
(g66
(I0
tS'b'
tRp1808
(I1
(tg69
I00
S'T\xf7\xc8\xe6\xaa9\xf7?'
tbasg321
(lp1809
I0
aI2781
aI5562
aI8343
aI11124
aI13905
aI16686
asg323
(lp1810
F14.135289192199707
aF18.331549167633057
aF22.243813037872314
aF26.076045036315918
aF29.976580142974854
aF33.630591154098511
aF37.268989086151123
asg325
(lp1811
I0
aI278035
aI556070
aI834105
aI1112140
aI1390175
aI1668210
asbaa(lp1812
S'total_seconds_last_epoch'
p1813
ag1
(g306
g3
NtRp1814
(dp1815
g309
(lp1816
I0
aI1
aI2
aI3
aI4
aI5
aI6
asg311
S'The number of seconds that were spent on the entirety of processing for the\nprevious epoch. This includes not only training but also the computation of\nthe monitoring channels, running TrainExtension callbacks, etc. This value\nis reported for the *previous* epoch because the amount of time spent on\nmonitoring for this epoch is not known until the monitoring channels have\nalready been reported.'
p1817
sg312
(lp1818
g65
(g66
(I0
tS'b'
tRp1819
(I1
(tg69
I00
S'\x00\x00\x00\x00\x00\x00\x00\x00'
tbag65
(g66
(I0
tS'b'
tRp1820
(I1
(tg69
I00
S'\x00\x00\x00\x00\x00\x00\x00\x00'
tbag65
(g66
(I0
tS'b'
tRp1821
(I1
(tg69
I00
S'$\x0e\xd9@\xba\x98\x10@'
tbag65
(g66
(I0
tS'b'
tRp1822
(I1
(tg69
I00
S'\xd4c[\x06\x9c\x05\x0f@'
tbag65
(g66
(I0
tS'b'
tRp1823
(I1
(tg69
I00
S'iQ\x9f\xe4\x0e\xbb\x0e@'
tbag65
(g66
(I0
tS'b'
tRp1824
(I1
(tg69
I00
S'\xcf\xf2<\xb8;k\x0f@'
tbag65
(g66
(I0
tS'b'
tRp1825
(I1
(tg69
I00
S'\xe9\xd2\xbf$\x95\t\r@'
tbasg321
(lp1826
I0
aI2781
aI5562
aI8343
aI11124
aI13905
aI16686
asg323
(lp1827
F14.135289192199707
aF18.331549167633057
aF22.243813037872314
aF26.076045036315918
aF29.976580142974854
aF33.630591154098511
aF37.268989086151123
asg325
(lp1828
I0
aI278035
aI556070
aI834105
aI1112140
aI1390175
aI1668210
asbaatRp1829
sS'_datasets'
p1830
(lp1831
S"!obj:pylearn2.datasets.csv_dataset.CSVDataset {path: './train.csv', expect_headers: False,\n  end_fraction: .1}\n"
p1832
aS"!obj:pylearn2.datasets.csv_dataset.CSVDataset {path: './results2.csv', task: 'classification',\n  expect_labels: True, expect_headers: False, delimiter: ',', start_fraction: 0.9}\n"
p1833
aS"!obj:pylearn2.datasets.csv_dataset.CSVDataset {path: './train.csv', expect_headers: False,\n  start_fraction: .9}\n"
p1834
asS'_iteration_mode'
p1835
(lp1836
S'sequential'
p1837
ag1837
ag1837
asS'_data_specs_mapping'
p1838
g1
(cpylearn2.utils.data_specs
DataSpecsMapping
p1839
g3
NtRp1840
(dp1841
S'spec_mapping'
p1842
((I0
I1
t(I0
I1
t(I0
I1
t(I0
I1
t(I0
I1
t(I0
I1
t(I0
I1
t(I0
I1
t(I0
I1
t(I0
I1
t(I0
I1
t(I0
I1
t(I0
I1
t(I0
I1
t(I0
I1
t(I0
I1
t(I0
I1
t(I0
I1
t(I0
I1
t(I0
I1
t(I0
I1
t(I0
I1
t(I0
I1
t(I0
I1
t(I0
I1
t(I0
I1
t(I0
I1
t(I0
I1
t(I0
I1
t(I0
I1
t(I0
I1
t(I0
I1
t(I0
I1
t(I0
I1
t(I0
I1
t(I0
I1
t(I0
I1
t(I0
I1
t(I0
I1
t(I0
I1
t(I0
I1
t(I0
I1
t(I0
I1
t(I0
I1
t(I0
I1
t(I0
I1
t(I0
I1
t(I0
I1
t(I0
I1
t(I0
I1
t(I0
I1
t(I0
I1
t(I0
I1
t(I0
I1
t(I0
I1
t(I0
I1
t(I0
I1
t(I0
I1
t(I0
I1
t(I0
I1
t(I0
I1
t(I0
I1
t(I0
I1
t(I0
I1
t(I0
I1
t(I0
I1
t(I0
I1
t(I0
I1
t(I0
I1
t(I0
I1
t(I0
I1
t(I0
I1
t(I0
I1
t(I0
I1
t(I0
I1
t(I0
I1
t(I0
I1
t(I0
I1
t(I0
I1
t(I0
I1
t(I0
I1
t(I0
I1
t(I0
I1
t(I0
I1
t(I0
I1
t(I0
I1
t(I0
I1
t(I0
I1
t(I0
I1
t(I0
I1
t(I0
I1
tNNNtp1843
sS'specs_to_index'
p1844
(dp1845
(g181
g265
tp1846
I1
s(g28
g295
tp1847
I0
ssS'n_unique_specs'
p1848
I2
sbsS'training_succeeded'
p1849
I01
sS'_num_batches_seen'
p1850
I16686
sS't0'
p1851
F1429549245.0062499
sS'on_channel_conflict'
p1852
S'error'
p1853
sg90
(lp1854
S'theano_function_mode'
p1855
aS'accum'
p1856
aS'begin_record_entry'
p1857
aS'num_examples'
p1858
aS'prereqs'
p1859
asS'model'
p1860
g4
sS'_nested_data_specs'
p1861
(g1
(g288
g3
NtRp1862
(dp1863
g33
(lp1864
sg292
(lp1865
g1
(g288
g3
NtRp1866
(dp1867
g33
(lp1868
sg292
(lp1869
g28
ag181
asg36
(lp1870
sbag1
(g288
g3
NtRp1871
(dp1872
g33
(lp1873
sg292
(lp1874
g28
ag181
asg36
(lp1875
sbag1
(g288
g3
NtRp1876
(dp1877
g33
(lp1878
sg292
(lp1879
g28
ag181
asg36
(lp1880
sbag1876
ag1876
ag1876
ag1876
ag1876
ag1876
ag1876
ag1876
ag1876
ag1876
ag1876
ag1876
ag1876
ag1876
ag1876
ag1876
ag1876
ag1876
ag1876
ag1876
ag1876
ag1876
ag1876
ag1876
ag1876
ag1876
ag1876
ag1876
ag1
(g288
g3
NtRp1881
(dp1882
g33
(lp1883
sg292
(lp1884
g28
ag181
asg36
(lp1885
sbag1876
ag1876
ag1876
ag1876
ag1876
ag1876
ag1876
ag1876
ag1876
ag1876
ag1876
ag1876
ag1876
ag1876
ag1876
ag1876
ag1876
ag1876
ag1876
ag1876
ag1876
ag1876
ag1876
ag1876
ag1876
ag1876
ag1876
ag1876
ag1876
ag1
(g288
g3
NtRp1886
(dp1887
g33
(lp1888
sg292
(lp1889
g28
ag181
asg36
(lp1890
sbag1876
ag1876
ag1876
ag1876
ag1876
ag1876
ag1876
ag1876
ag1876
ag1876
ag1876
ag1876
ag1876
ag1876
ag1876
ag1876
ag1876
ag1876
ag1876
ag1876
ag1876
ag1876
ag1876
ag1876
ag1876
ag1876
ag1876
ag1876
ag1876
ag1
(cpylearn2.space
NullSpace
p1891
g3
NtRp1892
(dp1893
g33
(lp1894
sg36
(lp1895
sbag1
(g1891
g3
NtRp1896
(dp1897
g33
(lp1898
sg36
(lp1899
sbag1
(g1891
g3
NtRp1900
(dp1901
g33
(lp1902
sg36
(lp1903
sbasg36
(lp1904
sb((g295
g265
t(g295
g265
tp1905
(g295
g265
tp1906
g1906
g1906
g1906
g1906
g1906
g1906
g1906
g1906
g1906
g1906
g1906
g1906
g1906
g1906
g1906
g1906
g1906
g1906
g1906
g1906
g1906
g1906
g1906
g1906
g1906
g1906
g1906
g1906
(g295
g265
tp1907
g1906
g1906
g1906
g1906
g1906
g1906
g1906
g1906
g1906
g1906
g1906
g1906
g1906
g1906
g1906
g1906
g1906
g1906
g1906
g1906
g1906
g1906
g1906
g1906
g1906
g1906
g1906
g1906
g1906
(g295
g265
tp1908
g1906
g1906
g1906
g1906
g1906
g1906
g1906
g1906
g1906
g1906
g1906
g1906
g1906
g1906
g1906
g1906
g1906
g1906
g1906
g1906
g1906
g1906
g1906
g1906
g1906
g1906
g1906
g1906
g1906
S''
S''
S''
ttp1909
sS'_rng_seed'
p1910
(lp1911
NaNaNasbaa(lp1912
S'force_batch_size'
p1913
aNaa(lp1914
S'_input_source'
p1915
ag295
aa(lp1916
S'_test_batch_size'
p1917
aI100
aa(lp1918
g116
aNaa(lp1919
S'dataset_yaml_src'
p1920
ag1833
aatRp1921
b.