ccopy_reg
_reconstructor
p1
(cpylearn2.models.mlp
MLP
p2
c__builtin__
object
p3
NtRp4
ccollections
OrderedDict
p5
((lp6
(lp7
S'layers'
p8
a(lp9
g1
(cpylearn2.models.mlp
Sigmoid
p10
g3
NtRp11
g5
((lp12
(lp13
S'copy_input'
p14
aNaa(lp15
S'use_abs_loss'
p16
aI00
aa(lp17
S'init_bias'
p18
aF0
aa(lp19
S'requires_reformat'
p20
aI00
aa(lp21
S'mask_weights'
p22
aNaa(lp23
S'use_bias'
p24
aI01
aa(lp25
S'input_space'
p26
ag1
(cpylearn2.space
VectorSpace
p27
g3
NtRp28
(dp29
S'dim'
p30
I10
sS'_dtype'
p31
S'float64'
p32
sS'validate_callbacks'
p33
(lp34
sS'sparse'
p35
I00
sS'np_validate_callbacks'
p36
(lp37
sbaa(lp38
S'transformer'
p39
ag1
(cpylearn2.linear.matrixmul
MatrixMul
p40
g3
NtRp41
(dp42
S'_W'
p43
g1
(ctheano.tensor.sharedvar
TensorSharedVariable
p44
g3
NtRp45
(dp46
S'auto_name'
p47
S'auto_9'
p48
sS'index'
p49
NsS'tag'
p50
(itheano.gof.utils
scratchpad
p51
(dp52
S'trace'
p53
(lp54
(S'/usr/local/lib/python2.7/site-packages/theano/compile/sharedvalue.py'
p55
I209
S'shared'
p56
S'utils.add_tag_trace(var)'
tp57
asbsS'container'
p58
g1
(ctheano.gof.link
Container
p59
g3
NtRp60
(dp61
S'name'
p62
NsS'storage'
p63
(lp64
cnumpy.core.multiarray
_reconstruct
p65
(cnumpy
ndarray
p66
(I0
tS'b'
tRp67
(I1
(I10
I10
tcnumpy
dtype
p68
(S'f8'
I0
I1
tRp69
(I3
S'<'
NNNI-1
I-1
I0
tbI00
S'\x00\x00\x00\x00\x00\x00\x00\x00\x00\x00\x00\x00\x00\x00\x00\x00\x00\x00\x00\x00\x00\x00\x00\x00\x00\x00\x00\x00\x00\x00\x00\x00qm\xa4\x8c+q\xee\xbf\x00\x00\x00\x00\x00\x00\x00\x00\x00\x00\x00\x00\x00\x00\x00\x00\x00\x00\x00\x00\x00\x00\x00\x00\x00\x00\x00\x00\x00\x00\x00\x00w>\xfc\x83`\x1f\xda?\xc3\x1a\xffc\xa6\xcd\xf0\xbf\x00\x00\x00\x00\x00\x00\x00\x00\x00\x00\x00\x00\x00\x00\x00\x00\x00\x00\x00\x00\x00\x00\x00\x00\x00\x00\x00\x00\x00\x00\x00\x00\xa8O\xa2l\xc2\x9f\xec?\x9aA\x7f\x85br\xf6\xbfl\xc8I\xa2\x05\xf9\xf4?\x00\x00\x00\x00\x00\x00\x00\x00\x00\x00\x00\x00\x00\x00\x00\x00\x00\x00\x00\x00\x00\x00\x00\x00\x00\x00\x00\x00\x00\x00\x00\x00L\xf7$\x004\x1e\xfa?]Z\x85\x90\xe6w\x02@\x00\x00\x00\x00\x00\x00\x00\x00\x00\x00\x00\x00\x00\x00\x00\x00\x00\x00\x00\x00\x00\x00\x00\x00\x08G\x7f`%\xdf\xd1\xbf\x00\x00\x00\x00\x00\x00\x00\x00\x00\x00\x00\x00\x00\x00\x00\x00\x00\x00\x00\x00\x00\x00\x00\x00\x186\xf6y?\x94\xde?\xa9\\\x9a8\xd4\xc0\xd2\xbf\n\x19\xa4\x1a\x03s\xf1\xbf\x00\x00\x00\x00\x00\x00\x00\x00&9\x86\x8b\x0cB\xf3?\xe7\xcd\xa5\xd9\xc2>\xd5\xbf\x00\x00\x00\x00\x00\x00\x00\x00\xe9\x1d1<\xe6\xa3\xf8\xbf\x00\x00\x00\x00\x00\x00\x00\x00\xb6/\x14b=c\xc7?\x86\xf3\x1d\x99\xc0\x16\x99?\x00\x00\x00\x00\x00\x00\x00\x00\x00\x00\x00\x00\x00\x00\x00\x00\x13<n_\x1f\t\xe7?T"\xd20\xf6\xbe\xdc\xbf:\xc1\xd2/R\xb8\xd1?-_\xcc\xb1\x84\xa4\xcc?\x00\x00\x00\x00\x00\x00\x00\x00\x00\x00\x00\x00\x00\x00\x00\x00\x19\xa2\x04\'\xbf.\xd5\xbf\x00\x00\x00\x00\x00\x00\x00\x00@\xf8\x83\x07i,\xfc\xbf\x00\x00\x00\x00\x00\x00\x00\x00\x00\x00\x00\x00\x00\x00\x00\x00\x1dc\xbc\x03)\x80\xf5?\x00\x00\x00\x00\x00\x00\x00\x00\x00\x00\x00\x00\x00\x00\x00\x00\x05\x91\xae>\x8b\xa3\xe2?\x05\x03\xedN\xdd\xce\xc7\xbf\xe3%\xdeK\xdc\x9d\xc0?\xeb`w\x88<\xd1\xea?Wz2\xf6\x84\xfd\xe0?\xa6o\xe2\xa3\xdb\xf8\xf1\xbf@\xc8\xdb%_\xb2\xed\xbf\x00\x00\x00\x00\x00\x00\x00\x00\xbc\x83F\xf5\x06\t\xf5\xbf(\xad\x8e`\xd3\x15\xfc?\xade\x9d\xa6\xe0u\xe7?\x00\x00\x00\x00\x00\x00\x00\x00\xf4\'BVg\xf7\xde\xbfR\xd7V\x05\xfa\x05\xd8\xbf9\xe2\x82002\xe6?6\xe2;Y,1\x00\xc0\x00\x00\x00\x00\x00\x00\x00\x00\x17\xbb\x90\xe4\x8f\xfc\xed?\x1e\xe2\xa1[\xd4\x0e\xfa?\x00\x00\x00\x00\x00\x00\x00\x00\x00\x00\x00\x00\x00\x00\x00\x00\xcc\xbf\x92M\xdb\xf7\xec?\x00\x00\x00\x00\x00\x00\x00\x00\x00\x00\x00\x00\x00\x00\x00\x00\x00\x00\x00\x00\x00\x00\x00\x00\x00\x00\x00\x00\x00\x00\x00\x00\xfd\x06\xabQ\xa2\x08\xf2\xbf\x00\x00\x00\x00\x00\x00\x00\x00\x00\x00\x00\x00\x00\x00\x00\x00\xce\x1d\xa9\xd4\xe2\x9e\xd4\xbf\xb9\xd9\xac\r\xca\x05\xf1?\x17\xf6\xcd\x9f\x91\xf4\xe2?\x00\x00\x00\x00\x00\x00\x00\x00VUZcl#\xf9?\x00\x00\x00\x00\x00\x00\x00\x00\xf7\xda\t\xb4\x877\xe2\xbf\xccS|\xd3\xa1Y\xf1?\x00\x00\x00\x00\x00\x00\x00\x00\x00\x00\x00\x00\x00\x00\x00\x00\x00\x00\x00\x00\x00\x00\x00\x00p&\x19\x81\xf7]\xf7?\xae9\xe0#\xc4N\x8b?'
tbasS'strict'
p70
I00
sS'readonly'
p71
I00
sS'type'
p72
g1
(ctheano.tensor.type
TensorType
p73
g3
NtRp74
(dp75
S'broadcastable'
p76
(I00
I00
tp77
sS'dtype'
p78
S'float64'
p79
sS'numpy_dtype'
p80
g69
sS'sparse_grad'
p81
I00
sg62
NsbsS'allow_downcast'
p82
Nsbsg62
S'h0_W'
p83
sS'owner'
p84
Nsg72
g74
sbsbaa(lp85
S'mlp'
p86
ag4
aa(lp87
S'W_lr_scale'
p88
aNaa(lp89
S'names_to_del'
p90
ac__builtin__
set
p91
((ltRp92
aa(lp93
S'sparse_stdev'
p94
aF1
aa(lp95
S'max_row_norm'
p96
aNaa(lp97
S'extensions'
p98
a(lp99
aa(lp100
S'output_space'
p101
ag1
(g27
g3
NtRp102
(dp103
g30
I10
sg31
g32
sg33
(lp104
sg35
I00
sg36
(lp105
sbaa(lp106
S'istdev'
p107
aNaa(lp108
S'monitor_style'
p109
aS'detection'
p110
aa(lp111
S'include_prob'
p112
aF1
aa(lp113
S'sparse_init'
p114
aI5
aa(lp115
S'layer_name'
p116
aS'h0'
p117
aa(lp118
S'irange'
p119
aNaa(lp120
g30
aI10
aa(lp121
S'b'
ag1
(g44
g3
NtRp122
(dp123
g47
S'auto_7'
p124
sg49
Nsg50
(itheano.gof.utils
scratchpad
p125
(dp126
g53
(lp127
(g55
I209
g56
S'utils.add_tag_trace(var)'
tp128
asbsg58
g1
(g59
g3
NtRp129
(dp130
g62
S'h0_b'
p131
sg63
(lp132
g65
(g66
(I0
tS'b'
tRp133
(I1
(I10
tg69
I00
S'\x00\x00\x00\x00\x00\x00\x00\x00\x00\x00\x00\x00\x00\x00\x00\x00\x00\x00\x00\x00\x00\x00\x00\x00\x00\x00\x00\x00\x00\x00\x00\x00\x00\x00\x00\x00\x00\x00\x00\x00\x00\x00\x00\x00\x00\x00\x00\x00\x00\x00\x00\x00\x00\x00\x00\x00\x00\x00\x00\x00\x00\x00\x00\x00\x00\x00\x00\x00\x00\x00\x00\x00\x00\x00\x00\x00\x00\x00\x00\x00'
tbasg70
I00
sg71
I00
sg72
g1
(g73
g3
NtRp134
(dp135
g76
(I00
tp136
sg78
S'float64'
p137
sg80
g69
sg81
I00
sg62
Nsbsg82
Nsbsg62
g131
sg84
Nsg72
g134
sbaa(lp138
S'yaml_src'
p139
aS"!obj:pylearn2.models.mlp.Sigmoid {layer_name: 'h0', dim: 10, sparse_init: 5}\n"
p140
aa(lp141
S'b_lr_scale'
p142
aNaa(lp143
S'max_col_norm'
p144
aNaa(lp145
S'min_col_norm'
p146
aNaa(lp147
S'input_dim'
p148
aI10
aatRp149
bag1
(cpylearn2.models.mlp
Softmax
p150
g3
NtRp151
g5
((lp152
(lp153
S'_has_binary_target'
p154
aI00
aa(lp155
S'W'
ag1
(g44
g3
NtRp156
(dp157
g47
S'auto_10'
p158
sg49
Nsg50
(itheano.gof.utils
scratchpad
p159
(dp160
g53
(lp161
(g55
I209
g56
S'utils.add_tag_trace(var)'
tp162
asbsg58
g1
(g59
g3
NtRp163
(dp164
g62
S'softmax_W'
p165
sg63
(lp166
g65
(g66
(I0
tS'b'
tRp167
(I1
(I10
I2
tg69
I00
S'\x00\x00\x00\x00\x00\x00\x00\x00\x00\x00\x00\x00\x00\x00\x00\x00\x00\x00\x00\x00\x00\x00\x00\x00\x00\x00\x00\x00\x00\x00\x00\x00\x00\x00\x00\x00\x00\x00\x00\x00\x00\x00\x00\x00\x00\x00\x00\x00\x00\x00\x00\x00\x00\x00\x00\x00\x00\x00\x00\x00\x00\x00\x00\x00\x00\x00\x00\x00\x00\x00\x00\x00\x00\x00\x00\x00\x00\x00\x00\x00\x00\x00\x00\x00\x00\x00\x00\x00\x00\x00\x00\x00\x00\x00\x00\x00\x00\x00\x00\x00\x00\x00\x00\x00\x00\x00\x00\x00\x00\x00\x00\x00\x00\x00\x00\x00\x00\x00\x00\x00\x00\x00\x00\x00\x00\x00\x00\x00\x00\x00\x00\x00\x00\x00\x00\x00\x00\x00\x00\x00\x00\x00\x00\x00\x00\x00\x00\x00\x00\x00\x00\x00\x00\x00\x00\x00\x00\x00\x00\x00'
tbasg70
I00
sg71
I00
sg72
g1
(g73
g3
NtRp168
(dp169
g76
(I00
I00
tp170
sg78
S'float64'
p171
sg80
g69
sg81
I00
sg62
Nsbsg82
Nsbsg62
g165
sg84
Nsg72
g168
sbaa(lp172
S'needs_reformat'
p173
aI00
aa(lp174
g26
ag102
aa(lp175
g144
aNaa(lp176
g88
aNaa(lp177
g90
ag91
((ltRp178
aa(lp179
g96
aNaa(lp180
g101
ag1
(g27
g3
NtRp181
(dp182
g30
I2
sg31
g32
sg33
(lp183
sg35
I00
sg36
(lp184
sbaa(lp185
S'non_redundant'
p186
aI00
aa(lp187
g107
aNaa(lp188
S'binary_target_dim'
p189
aNaa(lp190
S'n_classes'
p191
aI2
aa(lp192
g114
aNaa(lp193
S'no_affine'
p194
aI00
aa(lp195
g116
aS'y'
aa(lp196
g119
aF0
aa(lp197
S'desired_space'
p198
ag1
(g27
g3
NtRp199
(dp200
g30
I10
sg31
g32
sg33
(lp201
sg35
I00
sg36
(lp202
sbaa(lp203
S'_params'
p204
a(lp205
g1
(g44
g3
NtRp206
(dp207
g47
S'auto_8'
p208
sg49
Nsg50
(itheano.gof.utils
scratchpad
p209
(dp210
g53
(lp211
(g55
I209
g56
S'utils.add_tag_trace(var)'
tp212
asbsg58
g1
(g59
g3
NtRp213
(dp214
g62
S'softmax_b'
p215
sg63
(lp216
g65
(g66
(I0
tS'b'
tRp217
(I1
(I2
tg69
I00
S'\x00\x00\x00\x00\x00\x00\x00\x00\x00\x00\x00\x00\x00\x00\x00\x00'
tbasg70
I00
sg71
I00
sg72
g1
(g73
g3
NtRp218
(dp219
g76
(I00
tp220
sg78
S'float64'
p221
sg80
g69
sg81
I00
sg62
Nsbsg82
Nsbsg62
g215
sg84
Nsg72
g218
sbag156
aaa(lp222
S'b'
ag206
aa(lp223
g139
aS"!obj:pylearn2.models.mlp.Softmax {layer_name: 'y', n_classes: 2, irange: 0.}\n"
p224
aa(lp225
g142
aNaa(lp226
g86
ag4
aa(lp227
g98
a(lp228
aa(lp229
g148
aI10
aatRp230
baaa(lp231
g26
ag28
aa(lp232
S'layer_names'
p233
ag91
((lp234
S'y'
ag117
atRp235
aa(lp236
S'freeze_set'
p237
ag91
((ltRp238
aa(lp239
g139
aS"!obj:pylearn2.models.mlp.MLP {layers: [!obj:pylearn2.models.mlp.Sigmoid {layer_name: 'h0',\n      dim: 10, sparse_init: 5}, !obj:pylearn2.models.mlp.Softmax {layer_name: 'y',\n      n_classes: 2, irange: 0.}], nvis: 10}\n"
p240
aa(lp241
S'rng'
p242
acnumpy.random
__RandomState_ctor
p243
(tRp244
(S'MT19937'
p245
g65
(g66
(I0
tS'b'
tRp246
(I1
(I624
tg68
(S'u4'
I0
I1
tRp247
(I3
S'<'
NNNI-1
I-1
I0
tbI00
S'\xb84\xca\xc4\xa7\xcc\xa6\xe1\x8b\xfau\x90\x11"eY\x14\xe48n\x03\x844\x1d\x0f)\x97T\x98\xf1\x06\x14\xee\x97d#\x13\xe6\xebh\xe9\x15[\xc9M\xccKbr\xae\x8dI\x9d\xf8\xdf&D$\x88\xaf \xee\x04J\x19\x92\x9f\x88\xf7\xdb\xef\x17\xc0\x8a\r\xb8c\x1c\xfeN\xfbw,k\xe6\x89F\x17\xd0za\xb7\xcb\xd2\x0b\x87\xe7\xb5~4\xffZ\x7fQ\x989\xddC\xdd\xa5\xf5\xeb\xedi\xc8\xee\x08\x9a\x93\xb1\\\x9f\x01m\xe6\xfd\xb6A\xbc\x1a\xed:\xf0:\xb8\x92\x0e\xd9i\xe0\x08\x89\x9f\x0e\xa2v\x1f\x1a\xcc*\xa62\x02\xef\x1c\x85<\x9fTW\x05\xb4\xc2\x14\x18\x86]\xaf\xdbw1\nm\xcdQ\xba\x1f\xf6$\x89X\x8f\xae<\xa1\xc8\x06\xd0(\x9f\x12L\xa6I\x7f\xe6a%\xd3\xfc\x08\x14\xf7\x02C\xf8\x1ev\x18,_\x846\x8f\xef>P@\xec{\xb6\x0e\x92F\x02\xeb60\xf1 \x94%\xdb\x9cb\xbc\x9c\xc3a\xf6\x02M\x1c\xc9\xf4UIK}%Y\x0f\x82\x01\x15I\xdb\xc3f\xb8eP\x95\xa5S\xbb\xb6\xce<\xc1\x04B>o\x07\xd6\x03\xbeq\x87\xe2\xe6lN\x8e\t\xefa\xff\x90\xb9oOxY\xfc\xedp\xc3\x1e\x02kY\xf2\xaf\xcaZV\x00y\xc1\xce\x14\xff\x93\xbdP\xf9~\x93~\xf9V\x1aU\xe2-3\xb9\x02\xdb\xbdJ5N\xca\x82\xb2\xa9CY\x1e\x02\xf4wu/BA\x99\x94s\x15tn\xb1\xb9\x9c8\xca\xdc\x15\x0f\x9dI\x02N$M\x05XkS\xc7\xa7\xb4\xde\xd5\xe5\x81\x85\xe6\xa1\x1c\x9f\x03h\x9bP]\xec\x07\x89\xcf\xaf=L\x92\x0b}\x93~5\x8f\xc4}\xae\x97\xae\xd5]L\xea\x9c5i|\xc6\\\x9dAj\xb6\xb6\xb8\xe1\xc5CO;v\x17Wq\xe2A\x82,2\xa2\xb9\xb8\xads\xc4g\x01\x96\xb7\xca\xde\xad\xa5-!\xa9\xfb\xda\xec\x14\xd3>[\xe6\x82M\xa5\x8c\xf0\x1b\xb7\xff\n\xd3}\xa4=\xb3\n,\xe5\'`m\x8e\x85\xdca\x8a\xd6\xfa\xc3\x88Ls\x18\x87\xc9lx\xcb\xf1\xd1\x9f\x8b\x0c\'b\x05\x11\xe5\xc20\r^\xbc_\x07N\xec\xaf!/\xaf\xf9\xa7\x1c\x91\xa5*4\xa3/.\xdc2\x13\xbd\xca\x84\xc4\x1a|\xea\x1b\xc1\xde\xd2\xe9\xaet0N\x19\xde\xff\x8f\xfe\xe1lm\x18il\xf5\x9fbQ\x13\n@\xc3\xb4\xb2\t\x8a\t\xe7E\x83<\xb6\xc2\x87n\xed\xf0\xb6\xc2\x9fm\x84\xcd\xf8\xe0\xa3\xa2\xb9ej\xd5\xc6\xc3\xd4\x1f\x04\xca\xfc`2\xc2\x02\xa0\x86Y\xe23\xa7A\xad\x94\xb8\xfc\x19\x1d\xb9_\xff\xcf-k\x9ec/f%\xbf\x11\x02\x86\x08\xf1\xc9\xe1\x8dc\x80\xdc&I\t\xae\x8e\x18\xecy\xe2\x04\x04u:x\x92\xaeV\x02r\x90QFQ?&\x00\x1evP\x9e+\x9aN\x13\xa5Bj\rS\xaa\xae\xb7\xee\x84N\xdc\x01\x83\xf6\xdaF\xec\x15\xebY\x8a\xa9\xcf\xf8\xe0\x07x\xab\xe6\xe3E\xf4\x94a]\xc9\xa3\xfd\xfc\xce\xb9n\xe1\x0e\x08\xdaY+\x15P\xba\xb9w\x14t*\x19\xd2\xcb\x115\xd4$\tc8\xc8\x9c\x8e\xc9\x82\xb0w\x98\xe5\xf0\x14~ND\x08\x87\\`\x92P d\x19Y\xc5\xa5`x\xdfI\xd2\xd9\xfe\xebpG0sb\x02\x06Jh\x93\xeb\xaaM\x828:\x97?x\x99\x9a\x0b\xa1\xc6\x18\x06\xbd7\xeb\n\xde\x169\xb4\xb8\x88\xe6tN\x18J\xf2\xde\x00\xfd?\xeb3\xbcD\xe3\x9a\xad!A\xdc\xa0\xf2\x07F\xed\xc5\x7f\x86\x7f\x89\xd2%\xfc\x05\x96!\x13z\xe7\xf1\xd2\xcb\xbc]GY\xe2l\x04\x9f;\x16)\x8e\xc4\x9f\x85\xf5\xbc39\xfb\x8f1SXlRMJ\xdcr/J\x9cK*\xa7\xd0\xa00\xablwcX\xc8yB\xefIuf\xab\xb2\xc4\xf7\x13\xb0\xb1\x90\xe9)\x0f\xe8\xaf\xbb\xc3T\xc3\xf4\x1b\xa5 9GW"\xdd\xc1\x82\x06G\x91*\xbba\x19\x8fuE\x90\xa5\x80\xab@x#\xeb\'\xf8-\xc9\x1e\xbf\xd1T\xbb\x99\xd9w)\xea\xe4\xbdUe6\xb3\x83B\x92\xc7b\xd2\xec\'\xeft\xad\x129\x0b\xec\x02\x91\xc8\x8f\x03\xf1Y\x0fV\xc2\xc8\xdeXjl(\xb2\x14\x96u\xdb_\xc2\x05\x9c\xf7:#\xe2\x9fv\xf1\xeb\xcal\x1a@"\xfc\xe9y\xdd_w\xb2\xce\xcd`\x83\xd6=\xcc\x04\'\x8e\xf6\xf4\x9e\xcbJn\xf2a\xda\xf2c\x03B\xc5\xca\xd6\xe8\xa2]\xe9Mgi\xb3[\xf8\xf6(\xf6\x05\x8a4U\x82%\x85\xf6\xb5W\xbe\x18:?!u\xdf\xfd^\x8c\xb0\xb3\x83h\xda\xae\xcb\xab\x98\xfa\x02\xb3\x8anwI\'\x80\x99\xd4\xc2\x8f).#\xb5>\x9b\xd8B\xa4d_\xe2t\x8ac5\x06\x7f;\xb6G^\x9f\x9a\x86\x08\xc4\xbe\xdc\x853\xe3\xfc%\xeb\xf2\xd5N\x8a\xca\x97\xc3\x7fQ\xcb\x11\nl\xcd\xe1\x14\x18y\xdcc\x1128%0\x80lx=\x10)o5\xf6)MM\x1c\xdb3\x14\xc91[;\x0f\xfb>\xa0DP\xbd\xbd\x9dWm\x16\xec\x08\x91?b\xe1\xb5\r\xcd\x93:\x1e\x98\xf3\xb5\xe1\x1b\xe7\x00\xe7\xd8*~B\x1d\xd5\x89\xdf\xb7H\xe2J\xcf\x9c\xf2\x1e\x95\xfe\x0bcI\xba\x85$W|\x86\r\xe0\xa53]\x85\xf6\x08\xa7\xbb\x03/\xecy\xe5\xb0\xde1c\xee\\\x96\xb5I`i\x97\xf2\x99\xc0\xe8t\xf4\xc1\xf7E\xa7\xd6\x9c\x02\x8fO<\x84`xn\xe5\\\xf4\x90(\xaf\x8dsf\xd8V\x11\xa2E\x026\xe8\x1b\x8eu\xba]Y\xb6gt5\x07\xc0M\x04:`\x183\xccY\xb1zv\xe5\xb7\xbb\x1c\xa7Z\xda\x01\xfd\x15\xbe\xacP!=\xbcg\xfa\xf3#\xea\x1aV&\x05\xf9W\xd8\xa6\xc8r\xc1\x164\xb1\xfb\xe5E1C[\x920\xa65\xb0`\xea\xfc\x9c =bS\x97m\xd1\xcf\xc9\xa8\xf3k*\xa5\xf7_\xfcQ\x90\x84\r\x9bs\xfb\xee(l/_\x06\x05\x1eQ\xff\x17a\xabI\xeb\x06]\xecX\x87\x92\x97u\x83\xd7\xaa\x85\x86Q\xe4L7N\xa3\x1a\xd5\x8c;\xb7:\xaa\xf7=3Xp\xc6\xbb\x83\xa1y\xc7\xd58\xcc\xda7\xd0\x0b7\xa8+\xea\x08\x9f\xde\xa5\xef\x87\xc43p\x11VdN\xc7\xa1\xee\xaa\xe5\xa7pD\x93s\xf6\x05y\xf6\xd95zw\x95\xd8\x05\xcf&\x98\x9a \x80\xbd\x81\xaehc1\n\xee\xe3\x1eu\xeb\x05\x9cQw\xbe\x9d\xd6A\xd0\xdf*[m\xc7\xc6\xc8\xce\xe04\x15\x16R==\t\x98\xf9\x17\x9f>\xce\xf9\xff\xc1\xc7\xa1\xd7\x8f-\xcd\x04&\'[\xce\x82\x04\xb6\xc2\xbe\xd2\xdbuE\x1b>\xc3%\'\x90=\x03\x9b\x05\x83RB\xf33\xba0_\xca\xe7\x19\x93\x15H\xf6\x84:%\x05\xed\xc2\x01d\x98\xb9\xdeLX\xf1\xbclu\xbc?c\xd6\x13|T\xe9}\x08N\x8emB~\xf6\x1e\x8dRp\x83\xb2~&\x82d\xe8\xc4\x18\x18\xba\xa1\xff\xe1;dT\xdcm\xd6\x87>b\x1d\x05{U\xf8\xf1\x9d\x9d\xfb\xf9=m\x19\xf74E\xddID\xe9G\x17\r\xf1\x90\xd0\xcbY\x19\x9c\xe6dX\xb8\xdf\x8b\xb3\xfan\x88\xc7\x8c\xd9\x8dl\xf0\xd7\x07\t\xbc\xd1v\x15R:\x00G\x1d\xf1\xfc\xed\xb8Z\x8f\x9bkmq\xf2M\xd1\xe6\xa7\xc6A\x98\xc1\x8b\xd6m\xa1\xde\x81\xda\xaf\xd9\x1b\xa9\xea\xd27/Wj-\xfbl\xd9;\r\x90NN\xf4\x08\x1b\x0f\n\xb4t\xdc\xd6\xeb\xadA\x87j}\x92W\xe9\xf8{\xf88[\x18\xa4P\xd9\xb1\xf9+Gy(2Q\x11\xc1\x88\x18\x90\xb7\xe3\xc5\x8ez\xcc\xfc\xf4\xd9\xaeU\xb1\xf2\xb3\xf3\xb2\x80q\xf6\x18i\x17?\x15\xca\x11#)G\x93\x9c\xb2]\xbev\xc2\x8b\x9e\x87\x80(a*>\xb1P7\xda1\x0c\xd1(p\xa0\x17p\x04\x1e\x04(\x9e\x18,\xf0\x19.\x82(cg\x00\xeet`?_\x06k0\x04\x80\xc6%\xa2\xc6\xce\xd0H\xbdGS<\xe2 \x92\xbc^\xfb\xf5c\x05\xf5!\x90\x98J\x8b\xc9\xb4 _G\xab^\x18@2\x804\x19Z\xe5ZI\xe5=`\x95\xfe&(\xaf\xae\xf0\xb8\xbcT\xf6\xdd\x82\'\x95A\x95uB.\xa2~\x91\xcf\x1d\xc7\\\x9b\xfc\xc6V\xa3\xae\x1dx\xc9im8[\x8b\x9d\x1f\x1f6*\xa5\xbc\x9d\xd2\xc1:\x99\xa8z\x84\r\x91\x044\x8d<,\x10\xe3\x11\x85\x93!:$\xa8\x054]\xf1a\xaf\x90\x0c\xf6\xd3V\xaa\xb1\x83q\xdeG\xf6\x06\xffi\xb9\xa9\xf11\x99&@k\xc1\x81H\xee\xa1\x04\x97\xfe\xad\xa1\xce[\x1b\xb7\xf0/\x0e@z\xf0l_\xcb&\xc1j\xc4b(\x8b\x04\xd9\xafw\x06\xa7f9\x80\xf1y\x8bL>\xe2\xfejj"\xdft\xe3g<\xd5\xf7I4\xec:c`2[^:O\xd7\xfaB\xd21\x89j\xd6#\x81\t\xb0$\x10\xef\x81Z9O3\xaa\x08\x0b7\x1e\x0cb\xff\x14\x7f\x81\x92\xcc\x0c\xef\xfc#\x1c>I\xed.\xb4\'&e\t\xcdY6c\n\r\xa9\xae\x0cI\xea\xe1\xc6\xb8\x0b\x07\xea\x01u\x04I6O\xa8k4L"=\xbd\xa5\t\x07\xc7\xc0\xcd?\xf6K\xa4\xd9\x1d8\x8eov\x92\xb1\xc9\x0f{\xe5D\xb4S\xe4\x81\x987p\x1b\x1c$\xb2o\x9f\x93c\xf6v\x15\x8b\x7f\xc8\xc1\xb2\x94\xd5M\x94\x93\n\xae\x0bP\x02*\x12\x91\xdek\xef\xf9\xbd\xf5.\x89\xab\x7f\xfaW3\xa8\x94\xc8\x99BQ\xe9_\x90\x96s\xe9$\xe0i\xc9\xb9\xf6C\xb7A\xbb\x90\xd0\x88.\xc3\x88\xc8\x1a\xda\xc7\xad\xbeS\x1d\x82)\x19\x0b\x94\xd9e N\xf6@\xa0\x18\x0c\xd7\xe4\xbf\xbd\xad\x8a\xd6\xe7\x8a\x98\xfd\xb2\xfb\xdd\xf5\x96\xd1\xf2vj\x97\x01\xa7\xa1\xcfS{\xbe8\xac8\x91\xc4\x85\x12j]o\xba\x91\xbf\t\xd3\xff\x07\x13\xc3:v\x07\x88)\x89?\x89\xd1\xdd\xedq\xcd\x7fR\xf7\x16\xdf\x8f\x80\xa5\x93\x84>\x07\xa075w\xa4\x8a\x8f\xd4T\x8bV\x12\n\xa8\x0ed\xcc\xe5\x13\xef\x078\x95\xdbjJ\xc1\xd2\x94\x02\xa6\x17\x9b?~lN\xb4+\x07\x8a\x08\x952C\x10\x0e\x1b\xc1\xb1\xbds\x7f\xf3&\xd5\xc6Y\xab\xb9dx\xe1\x07\x0b\xb9 \x11V\x17\xf6R\xc4%\x03C\\zoB\xbb\x7fKF_;M\xfe+q\x1e-\xa5-\xc5\xcf\xaf\xafr\x05\xfc\x94\xcc\x82=\x9f\x13\x9931\x8e\xc1\x10\''
tbI252
I0
F0
tbaa(lp248
S'_tag'
p249
accollections
defaultdict
p250
(c__builtin__
dict
p251
tRp252
S'MonitorBasedSaveBest'
p253
(dp254
S'channel_name'
p255
S'valid_y_misclass'
p256
sS'hostname'
p257
S'Jeffersons-MacBook-Air.local'
p258
sS'save_path'
p259
S'/Users/jeffersonlee/cs260r/project/mlp_best.pkl'
p260
sS'best_cost'
p261
g65
(g66
(I0
tS'b'
tRp262
(I1
(tg69
I00
S'\x10\xdfA|\x07\xf1\x9d?'
tbssaa(lp263
S'_target_source'
p264
aS'targets'
p265
aa(lp266
S'_nested'
p267
aI00
aa(lp268
S'monitor_targets'
p269
aI01
aa(lp270
S'seed'
p271
a(lp272
I2013
aI1
aI4
aaa(lp273
g98
a(lp274
aa(lp275
S'batch_size'
p276
aNaa(lp277
g90
ag91
((ltRp278
aa(lp279
S'monitor'
p280
ag1
(cpylearn2.monitor
Monitor
p281
g3
NtRp282
(dp283
S'_batch_size'
p284
(lp285
I100
aI100
aI100
asS'_dirty'
p286
I00
sS'_flat_data_specs'
p287
(g1
(cpylearn2.space
CompositeSpace
p288
g3
NtRp289
(dp290
g33
(lp291
sS'components'
p292
(lp293
g28
ag181
asg36
(lp294
sb(S'features'
p295
g265
ttp296
sS'_epochs_seen'
p297
I0
sS'_num_batches'
p298
(lp299
NaNaNasS'_examples_seen'
p300
I0
sS'time_budget_exceeded'
p301
I00
sS'channels'
p302
g5
((lp303
(lp304
S'test_objective'
p305
ag1
(cpylearn2.monitor
MonitorChannel
p306
g3
NtRp307
(dp308
S'epoch_record'
p309
(lp310
I0
asS'doc'
p311
NsS'val_record'
p312
(lp313
g65
(g66
(I0
tS'b'
tRp314
(I1
(tg69
I00
S'\xef9\xfa\xfeB.\xe6?'
tbasS'batch_record'
p315
(lp316
I0
asS'time_record'
p317
(lp318
F14.135289192199707
asS'example_record'
p319
(lp320
I0
asbaa(lp321
S'test_h0_range_x_min_u'
p322
ag1
(g306
g3
NtRp323
(dp324
g309
(lp325
I0
asg311
S'This channel came from a layer called "h0" of an MLP.\n<class \'pylearn2.models.mlp.Sigmoid\'>.get_monitoring_channels_from_state did not provide any further documentation for this channel.'
p326
sg312
(lp327
g65
(g66
(I0
tS'b'
tRp328
(I1
(tg69
I00
S'\x00\x00\x00\x00\x00\x00\x00\x00'
tbasg315
(lp329
I0
asg317
(lp330
F14.135289192199707
asg319
(lp331
I0
asbaa(lp332
S'test_h0_min_x_mean_u'
p333
ag1
(g306
g3
NtRp334
(dp335
g309
(lp336
I0
asg311
S'This channel came from a layer called "h0" of an MLP.\n<class \'pylearn2.models.mlp.Sigmoid\'>.get_monitoring_channels_from_state did not provide any further documentation for this channel.'
p337
sg312
(lp338
g65
(g66
(I0
tS'b'
tRp339
(I1
(tg69
I00
S'\xaahb\x82\xa0o\xde?'
tbasg315
(lp340
I0
asg317
(lp341
F14.135289192199707
asg319
(lp342
I0
asbaa(lp343
S'test_h0_mean_x_max_u'
p344
ag1
(g306
g3
NtRp345
(dp346
g309
(lp347
I0
asg311
S'This channel came from a layer called "h0" of an MLP.\n<class \'pylearn2.models.mlp.Sigmoid\'>.get_monitoring_channels_from_state did not provide any further documentation for this channel.'
p348
sg312
(lp349
g65
(g66
(I0
tS'b'
tRp350
(I1
(tg69
I00
S'\x00\x00\x00\x00\x00\x00\xf0?'
tbasg315
(lp351
I0
asg317
(lp352
F14.135289192199707
asg319
(lp353
I0
asbaa(lp354
S'test_y_col_norms_max'
p355
ag1
(g306
g3
NtRp356
(dp357
g309
(lp358
I0
asg311
S'This channel came from a layer called "y" of an MLP.\n<class \'pylearn2.models.mlp.Softmax\'>.get_monitoring_channels_from_state did not provide any further documentation for this channel.'
p359
sg312
(lp360
g65
(g66
(I0
tS'b'
tRp361
(I1
(tg69
I00
S'\x00\x00\x00\x00\x00\x00\x00\x00'
tbasg315
(lp362
I0
asg317
(lp363
F14.135289192199707
asg319
(lp364
I0
asbaa(lp365
S'test_y_nll'
p366
ag1
(g306
g3
NtRp367
(dp368
g309
(lp369
I0
asg311
S'This channel came from a layer called "y" of an MLP.\n<class \'pylearn2.models.mlp.Softmax\'>.get_monitoring_channels_from_state did not provide any further documentation for this channel.'
p370
sg312
(lp371
g65
(g66
(I0
tS'b'
tRp372
(I1
(tg69
I00
S'\xef9\xfa\xfeB.\xe6?'
tbasg315
(lp373
I0
asg317
(lp374
F14.135289192199707
asg319
(lp375
I0
asbaa(lp376
S'test_h0_range_x_max_u'
p377
ag1
(g306
g3
NtRp378
(dp379
g309
(lp380
I0
asg311
S'This channel came from a layer called "h0" of an MLP.\n<class \'pylearn2.models.mlp.Sigmoid\'>.get_monitoring_channels_from_state did not provide any further documentation for this channel.'
p381
sg312
(lp382
g65
(g66
(I0
tS'b'
tRp383
(I1
(tg69
I00
S':#n\xc5\xff\xff\xef?'
tbasg315
(lp384
I0
asg317
(lp385
F14.135289192199707
asg319
(lp386
I0
asbaa(lp387
S'test_h0_range_x_mean_u'
p388
ag1
(g306
g3
NtRp389
(dp390
g309
(lp391
I0
asg311
S'This channel came from a layer called "h0" of an MLP.\n<class \'pylearn2.models.mlp.Sigmoid\'>.get_monitoring_channels_from_state did not provide any further documentation for this channel.'
p392
sg312
(lp393
g65
(g66
(I0
tS'b'
tRp394
(I1
(tg69
I00
S'\x96\x06\x9c\x9a)\xaa\xd9?'
tbasg315
(lp395
I0
asg317
(lp396
F14.135289192199707
asg319
(lp397
I0
asbaa(lp398
S'test_h0_min_x_max_u'
p399
ag1
(g306
g3
NtRp400
(dp401
g309
(lp402
I0
asg311
S'This channel came from a layer called "h0" of an MLP.\n<class \'pylearn2.models.mlp.Sigmoid\'>.get_monitoring_channels_from_state did not provide any further documentation for this channel.'
p403
sg312
(lp404
g65
(g66
(I0
tS'b'
tRp405
(I1
(tg69
I00
S'\x00\x00\x00\x00\x00\x00\xf0?'
tbasg315
(lp406
I0
asg317
(lp407
F14.135289192199707
asg319
(lp408
I0
asbaa(lp409
S'test_h0_max_x_min_u'
p410
ag1
(g306
g3
NtRp411
(dp412
g309
(lp413
I0
asg311
S'This channel came from a layer called "h0" of an MLP.\n<class \'pylearn2.models.mlp.Sigmoid\'>.get_monitoring_channels_from_state did not provide any further documentation for this channel.'
p414
sg312
(lp415
g65
(g66
(I0
tS'b'
tRp416
(I1
(tg69
I00
S'\x8aX\xf3\xd5\xb8\t\xa1?'
tbasg315
(lp417
I0
asg317
(lp418
F14.135289192199707
asg319
(lp419
I0
asbaa(lp420
S'test_h0_row_norms_min'
p421
ag1
(g306
g3
NtRp422
(dp423
g309
(lp424
I0
asg311
S'This channel came from a layer called "h0" of an MLP.\n<class \'pylearn2.models.mlp.Sigmoid\'>.get_monitoring_channels_from_state did not provide any further documentation for this channel.'
p425
sg312
(lp426
g65
(g66
(I0
tS'b'
tRp427
(I1
(tg69
I00
S'`zV\x99\xab\x07\xee?'
tbasg315
(lp428
I0
asg317
(lp429
F14.135289192199707
asg319
(lp430
I0
asbaa(lp431
S'test_y_row_norms_max'
p432
ag1
(g306
g3
NtRp433
(dp434
g309
(lp435
I0
asg311
S'This channel came from a layer called "y" of an MLP.\n<class \'pylearn2.models.mlp.Softmax\'>.get_monitoring_channels_from_state did not provide any further documentation for this channel.'
p436
sg312
(lp437
g65
(g66
(I0
tS'b'
tRp438
(I1
(tg69
I00
S'\x00\x00\x00\x00\x00\x00\x00\x00'
tbasg315
(lp439
I0
asg317
(lp440
F14.135289192199707
asg319
(lp441
I0
asbaa(lp442
S'test_y_misclass'
p443
ag1
(g306
g3
NtRp444
(dp445
g309
(lp446
I0
asg311
S'This channel came from a layer called "y" of an MLP.\n<class \'pylearn2.models.mlp.Softmax\'>.get_monitoring_channels_from_state did not provide any further documentation for this channel.'
p447
sg312
(lp448
g65
(g66
(I0
tS'b'
tRp449
(I1
(tg69
I00
S'(\xaf\xa1\xbc\x86\xf2\xba?'
tbasg315
(lp450
I0
asg317
(lp451
F14.135289192199707
asg319
(lp452
I0
asbaa(lp453
S'test_h0_min_x_min_u'
p454
ag1
(g306
g3
NtRp455
(dp456
g309
(lp457
I0
asg311
S'This channel came from a layer called "h0" of an MLP.\n<class \'pylearn2.models.mlp.Sigmoid\'>.get_monitoring_channels_from_state did not provide any further documentation for this channel.'
p458
sg312
(lp459
g65
(g66
(I0
tS'b'
tRp460
(I1
(tg69
I00
S'\xab\x04\x05\x05Z]s7'
tbasg315
(lp461
I0
asg317
(lp462
F14.135289192199707
asg319
(lp463
I0
asbaa(lp464
S'test_y_mean_max_class'
p465
ag1
(g306
g3
NtRp466
(dp467
g309
(lp468
I0
asg311
S'This channel came from a layer called "y" of an MLP.\n<class \'pylearn2.models.mlp.Softmax\'>.get_monitoring_channels_from_state did not provide any further documentation for this channel.'
p469
sg312
(lp470
g65
(g66
(I0
tS'b'
tRp471
(I1
(tg69
I00
S'\x00\x00\x00\x00\x00\x00\xe0?'
tbasg315
(lp472
I0
asg317
(lp473
F14.135289192199707
asg319
(lp474
I0
asbaa(lp475
S'test_h0_row_norms_mean'
p476
ag1
(g306
g3
NtRp477
(dp478
g309
(lp479
I0
asg311
S'This channel came from a layer called "h0" of an MLP.\n<class \'pylearn2.models.mlp.Sigmoid\'>.get_monitoring_channels_from_state did not provide any further documentation for this channel.'
p480
sg312
(lp481
g65
(g66
(I0
tS'b'
tRp482
(I1
(tg69
I00
S'\x96e\xc6\xdb\xe3\x8f\x01@'
tbasg315
(lp483
I0
asg317
(lp484
F14.135289192199707
asg319
(lp485
I0
asbaa(lp486
S'test_h0_col_norms_max'
p487
ag1
(g306
g3
NtRp488
(dp489
g309
(lp490
I0
asg311
S'This channel came from a layer called "h0" of an MLP.\n<class \'pylearn2.models.mlp.Sigmoid\'>.get_monitoring_channels_from_state did not provide any further documentation for this channel.'
p491
sg312
(lp492
g65
(g66
(I0
tS'b'
tRp493
(I1
(tg69
I00
S'\xa5\xa9\xf5,\xb1\xf1\x0b@'
tbasg315
(lp494
I0
asg317
(lp495
F14.135289192199707
asg319
(lp496
I0
asbaa(lp497
S'test_h0_mean_x_mean_u'
p498
ag1
(g306
g3
NtRp499
(dp500
g309
(lp501
I0
asg311
S'This channel came from a layer called "h0" of an MLP.\n<class \'pylearn2.models.mlp.Sigmoid\'>.get_monitoring_channels_from_state did not provide any further documentation for this channel.'
p502
sg312
(lp503
g65
(g66
(I0
tS'b'
tRp504
(I1
(tg69
I00
S"'ST\x1e\x08\xd2\xe3?"
tbasg315
(lp505
I0
asg317
(lp506
F14.135289192199707
asg319
(lp507
I0
asbaa(lp508
S'test_y_row_norms_min'
p509
ag1
(g306
g3
NtRp510
(dp511
g309
(lp512
I0
asg311
S'This channel came from a layer called "y" of an MLP.\n<class \'pylearn2.models.mlp.Softmax\'>.get_monitoring_channels_from_state did not provide any further documentation for this channel.'
p513
sg312
(lp514
g65
(g66
(I0
tS'b'
tRp515
(I1
(tg69
I00
S'\x00\x00\x00\x00\x00\x00\x00\x00'
tbasg315
(lp516
I0
asg317
(lp517
F14.135289192199707
asg319
(lp518
I0
asbaa(lp519
S'test_h0_mean_x_min_u'
p520
ag1
(g306
g3
NtRp521
(dp522
g309
(lp523
I0
asg311
S'This channel came from a layer called "h0" of an MLP.\n<class \'pylearn2.models.mlp.Sigmoid\'>.get_monitoring_channels_from_state did not provide any further documentation for this channel.'
p524
sg312
(lp525
g65
(g66
(I0
tS'b'
tRp526
(I1
(tg69
I00
S'UW^\xb8(\x03b?'
tbasg315
(lp527
I0
asg317
(lp528
F14.135289192199707
asg319
(lp529
I0
asbaa(lp530
S'test_h0_max_x_mean_u'
p531
ag1
(g306
g3
NtRp532
(dp533
g309
(lp534
I0
asg311
S'This channel came from a layer called "h0" of an MLP.\n<class \'pylearn2.models.mlp.Sigmoid\'>.get_monitoring_channels_from_state did not provide any further documentation for this channel.'
p535
sg312
(lp536
g65
(g66
(I0
tS'b'
tRp537
(I1
(tg69
I00
S'\xa07\x7f\x0e\xe5\x0c\xec?'
tbasg315
(lp538
I0
asg317
(lp539
F14.135289192199707
asg319
(lp540
I0
asbaa(lp541
S'test_y_col_norms_mean'
p542
ag1
(g306
g3
NtRp543
(dp544
g309
(lp545
I0
asg311
S'This channel came from a layer called "y" of an MLP.\n<class \'pylearn2.models.mlp.Softmax\'>.get_monitoring_channels_from_state did not provide any further documentation for this channel.'
p546
sg312
(lp547
g65
(g66
(I0
tS'b'
tRp548
(I1
(tg69
I00
S'\x00\x00\x00\x00\x00\x00\x00\x00'
tbasg315
(lp549
I0
asg317
(lp550
F14.135289192199707
asg319
(lp551
I0
asbaa(lp552
S'test_y_max_max_class'
p553
ag1
(g306
g3
NtRp554
(dp555
g309
(lp556
I0
asg311
S'This channel came from a layer called "y" of an MLP.\n<class \'pylearn2.models.mlp.Softmax\'>.get_monitoring_channels_from_state did not provide any further documentation for this channel.'
p557
sg312
(lp558
g65
(g66
(I0
tS'b'
tRp559
(I1
(tg69
I00
S'\x00\x00\x00\x00\x00\x00\xe0?'
tbasg315
(lp560
I0
asg317
(lp561
F14.135289192199707
asg319
(lp562
I0
asbaa(lp563
S'test_h0_col_norms_mean'
p564
ag1
(g306
g3
NtRp565
(dp566
g309
(lp567
I0
asg311
S'This channel came from a layer called "h0" of an MLP.\n<class \'pylearn2.models.mlp.Sigmoid\'>.get_monitoring_channels_from_state did not provide any further documentation for this channel.'
p568
sg312
(lp569
g65
(g66
(I0
tS'b'
tRp570
(I1
(tg69
I00
S'w\xcc\xe7\x02\xfe\xb4\x01@'
tbasg315
(lp571
I0
asg317
(lp572
F14.135289192199707
asg319
(lp573
I0
asbaa(lp574
S'test_y_min_max_class'
p575
ag1
(g306
g3
NtRp576
(dp577
g309
(lp578
I0
asg311
S'This channel came from a layer called "y" of an MLP.\n<class \'pylearn2.models.mlp.Softmax\'>.get_monitoring_channels_from_state did not provide any further documentation for this channel.'
p579
sg312
(lp580
g65
(g66
(I0
tS'b'
tRp581
(I1
(tg69
I00
S'\x00\x00\x00\x00\x00\x00\xe0?'
tbasg315
(lp582
I0
asg317
(lp583
F14.135289192199707
asg319
(lp584
I0
asbaa(lp585
S'test_y_row_norms_mean'
p586
ag1
(g306
g3
NtRp587
(dp588
g309
(lp589
I0
asg311
S'This channel came from a layer called "y" of an MLP.\n<class \'pylearn2.models.mlp.Softmax\'>.get_monitoring_channels_from_state did not provide any further documentation for this channel.'
p590
sg312
(lp591
g65
(g66
(I0
tS'b'
tRp592
(I1
(tg69
I00
S'\x00\x00\x00\x00\x00\x00\x00\x00'
tbasg315
(lp593
I0
asg317
(lp594
F14.135289192199707
asg319
(lp595
I0
asbaa(lp596
S'test_h0_row_norms_max'
p597
ag1
(g306
g3
NtRp598
(dp599
g309
(lp600
I0
asg311
S'This channel came from a layer called "h0" of an MLP.\n<class \'pylearn2.models.mlp.Sigmoid\'>.get_monitoring_channels_from_state did not provide any further documentation for this channel.'
p601
sg312
(lp602
g65
(g66
(I0
tS'b'
tRp603
(I1
(tg69
I00
S'@+p\x95|f\x08@'
tbasg315
(lp604
I0
asg317
(lp605
F14.135289192199707
asg319
(lp606
I0
asbaa(lp607
S'test_h0_max_x_max_u'
p608
ag1
(g306
g3
NtRp609
(dp610
g309
(lp611
I0
asg311
S'This channel came from a layer called "h0" of an MLP.\n<class \'pylearn2.models.mlp.Sigmoid\'>.get_monitoring_channels_from_state did not provide any further documentation for this channel.'
p612
sg312
(lp613
g65
(g66
(I0
tS'b'
tRp614
(I1
(tg69
I00
S'\x00\x00\x00\x00\x00\x00\xf0?'
tbasg315
(lp615
I0
asg317
(lp616
F14.135289192199707
asg319
(lp617
I0
asbaa(lp618
S'test_y_col_norms_min'
p619
ag1
(g306
g3
NtRp620
(dp621
g309
(lp622
I0
asg311
S'This channel came from a layer called "y" of an MLP.\n<class \'pylearn2.models.mlp.Softmax\'>.get_monitoring_channels_from_state did not provide any further documentation for this channel.'
p623
sg312
(lp624
g65
(g66
(I0
tS'b'
tRp625
(I1
(tg69
I00
S'\x00\x00\x00\x00\x00\x00\x00\x00'
tbasg315
(lp626
I0
asg317
(lp627
F14.135289192199707
asg319
(lp628
I0
asbaa(lp629
S'test_h0_col_norms_min'
p630
ag1
(g306
g3
NtRp631
(dp632
g309
(lp633
I0
asg311
S'This channel came from a layer called "h0" of an MLP.\n<class \'pylearn2.models.mlp.Sigmoid\'>.get_monitoring_channels_from_state did not provide any further documentation for this channel.'
p634
sg312
(lp635
g65
(g66
(I0
tS'b'
tRp636
(I1
(tg69
I00
S'\xe3\x00?"L\xbd\xf2?'
tbasg315
(lp637
I0
asg317
(lp638
F14.135289192199707
asg319
(lp639
I0
asbaa(lp640
S'train_objective'
p641
ag1
(g306
g3
NtRp642
(dp643
g309
(lp644
I0
asg311
Nsg312
(lp645
g65
(g66
(I0
tS'b'
tRp646
(I1
(tg69
I00
S'\xa8;\xfa\xfeB.\xe6?'
tbasg315
(lp647
I0
asg317
(lp648
F14.135289192199707
asg319
(lp649
I0
asbaa(lp650
S'train_h0_range_x_min_u'
p651
ag1
(g306
g3
NtRp652
(dp653
g309
(lp654
I0
asg311
g326
sg312
(lp655
g65
(g66
(I0
tS'b'
tRp656
(I1
(tg69
I00
S'\x00\x00\x00\x00\x00\x00\x00\x00'
tbasg315
(lp657
I0
asg317
(lp658
F14.135289192199707
asg319
(lp659
I0
asbaa(lp660
S'train_h0_min_x_mean_u'
p661
ag1
(g306
g3
NtRp662
(dp663
g309
(lp664
I0
asg311
g337
sg312
(lp665
g65
(g66
(I0
tS'b'
tRp666
(I1
(tg69
I00
S'\xca\x16\x8b\xf1\xf6c\xdd?'
tbasg315
(lp667
I0
asg317
(lp668
F14.135289192199707
asg319
(lp669
I0
asbaa(lp670
S'train_h0_mean_x_max_u'
p671
ag1
(g306
g3
NtRp672
(dp673
g309
(lp674
I0
asg311
g348
sg312
(lp675
g65
(g66
(I0
tS'b'
tRp676
(I1
(tg69
I00
S'\x8c\xfd\xff\xff\xff\xff\xef?'
tbasg315
(lp677
I0
asg317
(lp678
F14.135289192199707
asg319
(lp679
I0
asbaa(lp680
S'train_y_col_norms_max'
p681
ag1
(g306
g3
NtRp682
(dp683
g309
(lp684
I0
asg311
g359
sg312
(lp685
g65
(g66
(I0
tS'b'
tRp686
(I1
(tg69
I00
S'\x00\x00\x00\x00\x00\x00\x00\x00'
tbasg315
(lp687
I0
asg317
(lp688
F14.135289192199707
asg319
(lp689
I0
asbaa(lp690
S'train_y_nll'
p691
ag1
(g306
g3
NtRp692
(dp693
g309
(lp694
I0
asg311
g370
sg312
(lp695
g65
(g66
(I0
tS'b'
tRp696
(I1
(tg69
I00
S'\xa8;\xfa\xfeB.\xe6?'
tbasg315
(lp697
I0
asg317
(lp698
F14.135289192199707
asg319
(lp699
I0
asbaa(lp700
S'train_h0_range_x_max_u'
p701
ag1
(g306
g3
NtRp702
(dp703
g309
(lp704
I0
asg311
g381
sg312
(lp705
g65
(g66
(I0
tS'b'
tRp706
(I1
(tg69
I00
S'\x8c\xfd\xff\xff\xff\xff\xef?'
tbasg315
(lp707
I0
asg317
(lp708
F14.135289192199707
asg319
(lp709
I0
asbaa(lp710
S'train_h0_range_x_mean_u'
p711
ag1
(g306
g3
NtRp712
(dp713
g309
(lp714
I0
asg311
g392
sg312
(lp715
g65
(g66
(I0
tS'b'
tRp716
(I1
(tg69
I00
S'\x11\x93r\x93Wr\xd8?'
tbasg315
(lp717
I0
asg317
(lp718
F14.135289192199707
asg319
(lp719
I0
asbaa(lp720
S'train_h0_min_x_max_u'
p721
ag1
(g306
g3
NtRp722
(dp723
g309
(lp724
I0
asg311
g403
sg312
(lp725
g65
(g66
(I0
tS'b'
tRp726
(I1
(tg69
I00
S'\x8c\xfd\xff\xff\xff\xff\xef?'
tbasg315
(lp727
I0
asg317
(lp728
F14.135289192199707
asg319
(lp729
I0
asbaa(lp730
S'train_h0_max_x_min_u'
p731
ag1
(g306
g3
NtRp732
(dp733
g309
(lp734
I0
asg311
g414
sg312
(lp735
g65
(g66
(I0
tS'b'
tRp736
(I1
(tg69
I00
S"o'\xaa`]\xe3\x93?"
tbasg315
(lp737
I0
asg317
(lp738
F14.135289192199707
asg319
(lp739
I0
asbaa(lp740
S'train_h0_row_norms_min'
p741
ag1
(g306
g3
NtRp742
(dp743
g309
(lp744
I0
asg311
g425
sg312
(lp745
g65
(g66
(I0
tS'b'
tRp746
(I1
(tg69
I00
S'\xf6{V\x99\xab\x07\xee?'
tbasg315
(lp747
I0
asg317
(lp748
F14.135289192199707
asg319
(lp749
I0
asbaa(lp750
S'train_y_row_norms_max'
p751
ag1
(g306
g3
NtRp752
(dp753
g309
(lp754
I0
asg311
g436
sg312
(lp755
g65
(g66
(I0
tS'b'
tRp756
(I1
(tg69
I00
S'\x00\x00\x00\x00\x00\x00\x00\x00'
tbasg315
(lp757
I0
asg317
(lp758
F14.135289192199707
asg319
(lp759
I0
asbaa(lp760
S'train_y_misclass'
p761
ag1
(g306
g3
NtRp762
(dp763
g309
(lp764
I0
asg311
g447
sg312
(lp765
g65
(g66
(I0
tS'b'
tRp766
(I1
(tg69
I00
S'\xfcU\x9d/\xe5u\xe7?'
tbasg315
(lp767
I0
asg317
(lp768
F14.135289192199707
asg319
(lp769
I0
asbaa(lp770
S'train_h0_min_x_min_u'
p771
ag1
(g306
g3
NtRp772
(dp773
g309
(lp774
I0
asg311
g458
sg312
(lp775
g65
(g66
(I0
tS'b'
tRp776
(I1
(tg69
I00
S'\x00\x00\x00\x00\x00\x00\x00\x00'
tbasg315
(lp777
I0
asg317
(lp778
F14.135289192199707
asg319
(lp779
I0
asbaa(lp780
S'train_y_mean_max_class'
p781
ag1
(g306
g3
NtRp782
(dp783
g309
(lp784
I0
asg311
g469
sg312
(lp785
g65
(g66
(I0
tS'b'
tRp786
(I1
(tg69
I00
S'\x8c\xfd\xff\xff\xff\xff\xdf?'
tbasg315
(lp787
I0
asg317
(lp788
F14.135289192199707
asg319
(lp789
I0
asbaa(lp790
S'train_h0_row_norms_mean'
p791
ag1
(g306
g3
NtRp792
(dp793
g309
(lp794
I0
asg311
g480
sg312
(lp795
g65
(g66
(I0
tS'b'
tRp796
(I1
(tg69
I00
S'\xf0d\xc6\xdb\xe3\x8f\x01@'
tbasg315
(lp797
I0
asg317
(lp798
F14.135289192199707
asg319
(lp799
I0
asbaa(lp800
S'train_h0_col_norms_max'
p801
ag1
(g306
g3
NtRp802
(dp803
g309
(lp804
I0
asg311
g491
sg312
(lp805
g65
(g66
(I0
tS'b'
tRp806
(I1
(tg69
I00
S']\xab\xf5,\xb1\xf1\x0b@'
tbasg315
(lp807
I0
asg317
(lp808
F14.135289192199707
asg319
(lp809
I0
asbaa(lp810
S'train_h0_mean_x_mean_u'
p811
ag1
(g306
g3
NtRp812
(dp813
g309
(lp814
I0
asg311
g502
sg312
(lp815
g65
(g66
(I0
tS'b'
tRp816
(I1
(tg69
I00
S'QB\x0c\xc5#>\xe3?'
tbasg315
(lp817
I0
asg317
(lp818
F14.135289192199707
asg319
(lp819
I0
asbaa(lp820
S'train_y_row_norms_min'
p821
ag1
(g306
g3
NtRp822
(dp823
g309
(lp824
I0
asg311
g513
sg312
(lp825
g65
(g66
(I0
tS'b'
tRp826
(I1
(tg69
I00
S'\x00\x00\x00\x00\x00\x00\x00\x00'
tbasg315
(lp827
I0
asg317
(lp828
F14.135289192199707
asg319
(lp829
I0
asbaa(lp830
S'train_h0_mean_x_min_u'
p831
ag1
(g306
g3
NtRp832
(dp833
g309
(lp834
I0
asg311
g524
sg312
(lp835
g65
(g66
(I0
tS'b'
tRp836
(I1
(tg69
I00
S'\x94\xe5\xca\xcd\x1a\xb3-?'
tbasg315
(lp837
I0
asg317
(lp838
F14.135289192199707
asg319
(lp839
I0
asbaa(lp840
S'train_h0_max_x_mean_u'
p841
ag1
(g306
g3
NtRp842
(dp843
g309
(lp844
I0
asg311
g535
sg312
(lp845
g65
(g66
(I0
tS'b'
tRp846
(I1
(tg69
I00
S"\xb7\xd5~B'\xeb\xea?"
tbasg315
(lp847
I0
asg317
(lp848
F14.135289192199707
asg319
(lp849
I0
asbaa(lp850
S'train_y_col_norms_mean'
p851
ag1
(g306
g3
NtRp852
(dp853
g309
(lp854
I0
asg311
g546
sg312
(lp855
g65
(g66
(I0
tS'b'
tRp856
(I1
(tg69
I00
S'\x00\x00\x00\x00\x00\x00\x00\x00'
tbasg315
(lp857
I0
asg317
(lp858
F14.135289192199707
asg319
(lp859
I0
asbaa(lp860
S'train_y_max_max_class'
p861
ag1
(g306
g3
NtRp862
(dp863
g309
(lp864
I0
asg311
g557
sg312
(lp865
g65
(g66
(I0
tS'b'
tRp866
(I1
(tg69
I00
S'\x8c\xfd\xff\xff\xff\xff\xdf?'
tbasg315
(lp867
I0
asg317
(lp868
F14.135289192199707
asg319
(lp869
I0
asbaa(lp870
S'train_h0_col_norms_mean'
p871
ag1
(g306
g3
NtRp872
(dp873
g309
(lp874
I0
asg311
g568
sg312
(lp875
g65
(g66
(I0
tS'b'
tRp876
(I1
(tg69
I00
S'\xb6\xcb\xe7\x02\xfe\xb4\x01@'
tbasg315
(lp877
I0
asg317
(lp878
F14.135289192199707
asg319
(lp879
I0
asbaa(lp880
S'train_y_min_max_class'
p881
ag1
(g306
g3
NtRp882
(dp883
g309
(lp884
I0
asg311
g579
sg312
(lp885
g65
(g66
(I0
tS'b'
tRp886
(I1
(tg69
I00
S'\x8c\xfd\xff\xff\xff\xff\xdf?'
tbasg315
(lp887
I0
asg317
(lp888
F14.135289192199707
asg319
(lp889
I0
asbaa(lp890
S'train_y_row_norms_mean'
p891
ag1
(g306
g3
NtRp892
(dp893
g309
(lp894
I0
asg311
g590
sg312
(lp895
g65
(g66
(I0
tS'b'
tRp896
(I1
(tg69
I00
S'\x00\x00\x00\x00\x00\x00\x00\x00'
tbasg315
(lp897
I0
asg317
(lp898
F14.135289192199707
asg319
(lp899
I0
asbaa(lp900
S'train_h0_row_norms_max'
p901
ag1
(g306
g3
NtRp902
(dp903
g309
(lp904
I0
asg311
g601
sg312
(lp905
g65
(g66
(I0
tS'b'
tRp906
(I1
(tg69
I00
S'(*p\x95|f\x08@'
tbasg315
(lp907
I0
asg317
(lp908
F14.135289192199707
asg319
(lp909
I0
asbaa(lp910
S'train_h0_max_x_max_u'
p911
ag1
(g306
g3
NtRp912
(dp913
g309
(lp914
I0
asg311
g612
sg312
(lp915
g65
(g66
(I0
tS'b'
tRp916
(I1
(tg69
I00
S'\x8c\xfd\xff\xff\xff\xff\xef?'
tbasg315
(lp917
I0
asg317
(lp918
F14.135289192199707
asg319
(lp919
I0
asbaa(lp920
S'train_y_col_norms_min'
p921
ag1
(g306
g3
NtRp922
(dp923
g309
(lp924
I0
asg311
g623
sg312
(lp925
g65
(g66
(I0
tS'b'
tRp926
(I1
(tg69
I00
S'\x00\x00\x00\x00\x00\x00\x00\x00'
tbasg315
(lp927
I0
asg317
(lp928
F14.135289192199707
asg319
(lp929
I0
asbaa(lp930
S'train_h0_col_norms_min'
p931
ag1
(g306
g3
NtRp932
(dp933
g309
(lp934
I0
asg311
g634
sg312
(lp935
g65
(g66
(I0
tS'b'
tRp936
(I1
(tg69
I00
S'\x00\x01?"L\xbd\xf2?'
tbasg315
(lp937
I0
asg317
(lp938
F14.135289192199707
asg319
(lp939
I0
asbaa(lp940
S'valid_objective'
p941
ag1
(g306
g3
NtRp942
(dp943
g309
(lp944
I0
asg311
Nsg312
(lp945
g65
(g66
(I0
tS'b'
tRp946
(I1
(tg69
I00
S'\xf29\xfa\xfeB.\xe6?'
tbasg315
(lp947
I0
asg317
(lp948
F14.135289192199707
asg319
(lp949
I0
asbaa(lp950
S'valid_h0_range_x_min_u'
p951
ag1
(g306
g3
NtRp952
(dp953
g309
(lp954
I0
asg311
g326
sg312
(lp955
g65
(g66
(I0
tS'b'
tRp956
(I1
(tg69
I00
S'\x00\x00\x00\x00\x00\x00\x00\x00'
tbasg315
(lp957
I0
asg317
(lp958
F14.135289192199707
asg319
(lp959
I0
asbaa(lp960
S'valid_h0_min_x_mean_u'
p961
ag1
(g306
g3
NtRp962
(dp963
g309
(lp964
I0
asg311
g337
sg312
(lp965
g65
(g66
(I0
tS'b'
tRp966
(I1
(tg69
I00
S'\x10i\xd1\x81\xa2q\xd8?'
tbasg315
(lp967
I0
asg317
(lp968
F14.135289192199707
asg319
(lp969
I0
asbaa(lp970
S'valid_h0_mean_x_max_u'
p971
ag1
(g306
g3
NtRp972
(dp973
g309
(lp974
I0
asg311
g348
sg312
(lp975
g65
(g66
(I0
tS'b'
tRp976
(I1
(tg69
I00
S'\x00\x00\x00\x00\x00\x00\xf0?'
tbasg315
(lp977
I0
asg317
(lp978
F14.135289192199707
asg319
(lp979
I0
asbaa(lp980
S'valid_y_col_norms_max'
p981
ag1
(g306
g3
NtRp982
(dp983
g309
(lp984
I0
asg311
g359
sg312
(lp985
g65
(g66
(I0
tS'b'
tRp986
(I1
(tg69
I00
S'\x00\x00\x00\x00\x00\x00\x00\x00'
tbasg315
(lp987
I0
asg317
(lp988
F14.135289192199707
asg319
(lp989
I0
asbaa(lp990
S'valid_y_nll'
p991
ag1
(g306
g3
NtRp992
(dp993
g309
(lp994
I0
asg311
g370
sg312
(lp995
g65
(g66
(I0
tS'b'
tRp996
(I1
(tg69
I00
S'\xf29\xfa\xfeB.\xe6?'
tbasg315
(lp997
I0
asg317
(lp998
F14.135289192199707
asg319
(lp999
I0
asbaa(lp1000
S'valid_h0_range_x_max_u'
p1001
ag1
(g306
g3
NtRp1002
(dp1003
g309
(lp1004
I0
asg311
g381
sg312
(lp1005
g65
(g66
(I0
tS'b'
tRp1006
(I1
(tg69
I00
S'Y\x1f\x97\xe2\xff\xff\xef?'
tbasg315
(lp1007
I0
asg317
(lp1008
F14.135289192199707
asg319
(lp1009
I0
asbaa(lp1010
S'valid_h0_range_x_mean_u'
p1011
ag1
(g306
g3
NtRp1012
(dp1013
g309
(lp1014
I0
asg311
g392
sg312
(lp1015
g65
(g66
(I0
tS'b'
tRp1016
(I1
(tg69
I00
S'\xf1\xf7H\x003\xaf\xe0?'
tbasg315
(lp1017
I0
asg317
(lp1018
F14.135289192199707
asg319
(lp1019
I0
asbaa(lp1020
S'valid_h0_min_x_max_u'
p1021
ag1
(g306
g3
NtRp1022
(dp1023
g309
(lp1024
I0
asg311
g403
sg312
(lp1025
g65
(g66
(I0
tS'b'
tRp1026
(I1
(tg69
I00
S'\x00\x00\x00\x00\x00\x00\xf0?'
tbasg315
(lp1027
I0
asg317
(lp1028
F14.135289192199707
asg319
(lp1029
I0
asbaa(lp1030
S'valid_h0_max_x_min_u'
p1031
ag1
(g306
g3
NtRp1032
(dp1033
g309
(lp1034
I0
asg311
g414
sg312
(lp1035
g65
(g66
(I0
tS'b'
tRp1036
(I1
(tg69
I00
S'\x8aX\xf3\xd5\xb8\t\xa1?'
tbasg315
(lp1037
I0
asg317
(lp1038
F14.135289192199707
asg319
(lp1039
I0
asbaa(lp1040
S'valid_h0_row_norms_min'
p1041
ag1
(g306
g3
NtRp1042
(dp1043
g309
(lp1044
I0
asg311
g425
sg312
(lp1045
g65
(g66
(I0
tS'b'
tRp1046
(I1
(tg69
I00
S'azV\x99\xab\x07\xee?'
tbasg315
(lp1047
I0
asg317
(lp1048
F14.135289192199707
asg319
(lp1049
I0
asbaa(lp1050
S'valid_y_row_norms_max'
p1051
ag1
(g306
g3
NtRp1052
(dp1053
g309
(lp1054
I0
asg311
g436
sg312
(lp1055
g65
(g66
(I0
tS'b'
tRp1056
(I1
(tg69
I00
S'\x00\x00\x00\x00\x00\x00\x00\x00'
tbasg315
(lp1057
I0
asg317
(lp1058
F14.135289192199707
asg319
(lp1059
I0
asbaa(lp1060
S'valid_y_misclass'
p1061
ag1
(g306
g3
NtRp1062
(dp1063
g309
(lp1064
I0
asg311
g447
sg312
(lp1065
g262
asg315
(lp1066
I0
asg317
(lp1067
F14.135289192199707
asg319
(lp1068
I0
asbaa(lp1069
S'valid_h0_min_x_min_u'
p1070
ag1
(g306
g3
NtRp1071
(dp1072
g309
(lp1073
I0
asg311
g458
sg312
(lp1074
g65
(g66
(I0
tS'b'
tRp1075
(I1
(tg69
I00
S'\xac\x04\x05\x05Z]s7'
tbasg315
(lp1076
I0
asg317
(lp1077
F14.135289192199707
asg319
(lp1078
I0
asbaa(lp1079
S'valid_y_mean_max_class'
p1080
ag1
(g306
g3
NtRp1081
(dp1082
g309
(lp1083
I0
asg311
g469
sg312
(lp1084
g65
(g66
(I0
tS'b'
tRp1085
(I1
(tg69
I00
S'\x00\x00\x00\x00\x00\x00\xe0?'
tbasg315
(lp1086
I0
asg317
(lp1087
F14.135289192199707
asg319
(lp1088
I0
asbaa(lp1089
S'valid_h0_row_norms_mean'
p1090
ag1
(g306
g3
NtRp1091
(dp1092
g309
(lp1093
I0
asg311
g480
sg312
(lp1094
g65
(g66
(I0
tS'b'
tRp1095
(I1
(tg69
I00
S'\x95e\xc6\xdb\xe3\x8f\x01@'
tbasg315
(lp1096
I0
asg317
(lp1097
F14.135289192199707
asg319
(lp1098
I0
asbaa(lp1099
S'valid_h0_col_norms_max'
p1100
ag1
(g306
g3
NtRp1101
(dp1102
g309
(lp1103
I0
asg311
g491
sg312
(lp1104
g65
(g66
(I0
tS'b'
tRp1105
(I1
(tg69
I00
S'\xa5\xa9\xf5,\xb1\xf1\x0b@'
tbasg315
(lp1106
I0
asg317
(lp1107
F14.135289192199707
asg319
(lp1108
I0
asbaa(lp1109
S'valid_h0_mean_x_mean_u'
p1110
ag1
(g306
g3
NtRp1111
(dp1112
g309
(lp1113
I0
asg311
g502
sg312
(lp1114
g65
(g66
(I0
tS'b'
tRp1115
(I1
(tg69
I00
S'R\x85\xf1<\xdb\xac\xe3?'
tbasg315
(lp1116
I0
asg317
(lp1117
F14.135289192199707
asg319
(lp1118
I0
asbaa(lp1119
S'valid_y_row_norms_min'
p1120
ag1
(g306
g3
NtRp1121
(dp1122
g309
(lp1123
I0
asg311
g513
sg312
(lp1124
g65
(g66
(I0
tS'b'
tRp1125
(I1
(tg69
I00
S'\x00\x00\x00\x00\x00\x00\x00\x00'
tbasg315
(lp1126
I0
asg317
(lp1127
F14.135289192199707
asg319
(lp1128
I0
asbaa(lp1129
S'valid_h0_mean_x_min_u'
p1130
ag1
(g306
g3
NtRp1131
(dp1132
g309
(lp1133
I0
asg311
g524
sg312
(lp1134
g65
(g66
(I0
tS'b'
tRp1135
(I1
(tg69
I00
S'\xbb\x81r\x8bi\ns?'
tbasg315
(lp1136
I0
asg317
(lp1137
F14.135289192199707
asg319
(lp1138
I0
asbaa(lp1139
S'valid_h0_max_x_mean_u'
p1140
ag1
(g306
g3
NtRp1141
(dp1142
g309
(lp1143
I0
asg311
g535
sg312
(lp1144
g65
(g66
(I0
tS'b'
tRp1145
(I1
(tg69
I00
S'y\xac1A\x04\xe8\xec?'
tbasg315
(lp1146
I0
asg317
(lp1147
F14.135289192199707
asg319
(lp1148
I0
asbaa(lp1149
S'valid_y_col_norms_mean'
p1150
ag1
(g306
g3
NtRp1151
(dp1152
g309
(lp1153
I0
asg311
g546
sg312
(lp1154
g65
(g66
(I0
tS'b'
tRp1155
(I1
(tg69
I00
S'\x00\x00\x00\x00\x00\x00\x00\x00'
tbasg315
(lp1156
I0
asg317
(lp1157
F14.135289192199707
asg319
(lp1158
I0
asbaa(lp1159
S'valid_y_max_max_class'
p1160
ag1
(g306
g3
NtRp1161
(dp1162
g309
(lp1163
I0
asg311
g557
sg312
(lp1164
g65
(g66
(I0
tS'b'
tRp1165
(I1
(tg69
I00
S'\x00\x00\x00\x00\x00\x00\xe0?'
tbasg315
(lp1166
I0
asg317
(lp1167
F14.135289192199707
asg319
(lp1168
I0
asbaa(lp1169
S'valid_h0_col_norms_mean'
p1170
ag1
(g306
g3
NtRp1171
(dp1172
g309
(lp1173
I0
asg311
g568
sg312
(lp1174
g65
(g66
(I0
tS'b'
tRp1175
(I1
(tg69
I00
S'w\xcc\xe7\x02\xfe\xb4\x01@'
tbasg315
(lp1176
I0
asg317
(lp1177
F14.135289192199707
asg319
(lp1178
I0
asbaa(lp1179
S'valid_y_min_max_class'
p1180
ag1
(g306
g3
NtRp1181
(dp1182
g309
(lp1183
I0
asg311
g579
sg312
(lp1184
g65
(g66
(I0
tS'b'
tRp1185
(I1
(tg69
I00
S'\x00\x00\x00\x00\x00\x00\xe0?'
tbasg315
(lp1186
I0
asg317
(lp1187
F14.135289192199707
asg319
(lp1188
I0
asbaa(lp1189
S'valid_y_row_norms_mean'
p1190
ag1
(g306
g3
NtRp1191
(dp1192
g309
(lp1193
I0
asg311
g590
sg312
(lp1194
g65
(g66
(I0
tS'b'
tRp1195
(I1
(tg69
I00
S'\x00\x00\x00\x00\x00\x00\x00\x00'
tbasg315
(lp1196
I0
asg317
(lp1197
F14.135289192199707
asg319
(lp1198
I0
asbaa(lp1199
S'valid_h0_row_norms_max'
p1200
ag1
(g306
g3
NtRp1201
(dp1202
g309
(lp1203
I0
asg311
g601
sg312
(lp1204
g65
(g66
(I0
tS'b'
tRp1205
(I1
(tg69
I00
S'A+p\x95|f\x08@'
tbasg315
(lp1206
I0
asg317
(lp1207
F14.135289192199707
asg319
(lp1208
I0
asbaa(lp1209
S'valid_h0_max_x_max_u'
p1210
ag1
(g306
g3
NtRp1211
(dp1212
g309
(lp1213
I0
asg311
g612
sg312
(lp1214
g65
(g66
(I0
tS'b'
tRp1215
(I1
(tg69
I00
S'\x00\x00\x00\x00\x00\x00\xf0?'
tbasg315
(lp1216
I0
asg317
(lp1217
F14.135289192199707
asg319
(lp1218
I0
asbaa(lp1219
S'valid_y_col_norms_min'
p1220
ag1
(g306
g3
NtRp1221
(dp1222
g309
(lp1223
I0
asg311
g623
sg312
(lp1224
g65
(g66
(I0
tS'b'
tRp1225
(I1
(tg69
I00
S'\x00\x00\x00\x00\x00\x00\x00\x00'
tbasg315
(lp1226
I0
asg317
(lp1227
F14.135289192199707
asg319
(lp1228
I0
asbaa(lp1229
S'valid_h0_col_norms_min'
p1230
ag1
(g306
g3
NtRp1231
(dp1232
g309
(lp1233
I0
asg311
g634
sg312
(lp1234
g65
(g66
(I0
tS'b'
tRp1235
(I1
(tg69
I00
S'\xe4\x00?"L\xbd\xf2?'
tbasg315
(lp1236
I0
asg317
(lp1237
F14.135289192199707
asg319
(lp1238
I0
asbaa(lp1239
S'learning_rate'
p1240
ag1
(g306
g3
NtRp1241
(dp1242
g309
(lp1243
I0
asg311
Nsg312
(lp1244
g65
(g66
(I0
tS'b'
tRp1245
(I1
(tg69
I00
S'\x99\x99\x99\x99\x99\x99\xb9?'
tbasg315
(lp1246
I0
asg317
(lp1247
F14.135289192199707
asg319
(lp1248
I0
asbaa(lp1249
S'training_seconds_this_epoch'
p1250
ag1
(g306
g3
NtRp1251
(dp1252
g309
(lp1253
I0
asg311
S'The number of seconds that were spent in actual training during the most\nrecent epoch. This excludes seconds that were spent running callbacks for\nthe extensions, computing monitoring channels, etc.'
p1254
sg312
(lp1255
g65
(g66
(I0
tS'b'
tRp1256
(I1
(tg69
I00
S'\x00\x00\x00\x00\x00\x00\x00\x00'
tbasg315
(lp1257
I0
asg317
(lp1258
F14.135289192199707
asg319
(lp1259
I0
asbaa(lp1260
S'total_seconds_last_epoch'
p1261
ag1
(g306
g3
NtRp1262
(dp1263
g309
(lp1264
I0
asg311
S'The number of seconds that were spent on the entirety of processing for the\nprevious epoch. This includes not only training but also the computation of\nthe monitoring channels, running TrainExtension callbacks, etc. This value\nis reported for the *previous* epoch because the amount of time spent on\nmonitoring for this epoch is not known until the monitoring channels have\nalready been reported.'
p1265
sg312
(lp1266
g65
(g66
(I0
tS'b'
tRp1267
(I1
(tg69
I00
S'\x00\x00\x00\x00\x00\x00\x00\x00'
tbasg315
(lp1268
I0
asg317
(lp1269
F14.135289192199707
asg319
(lp1270
I0
asbaatRp1271
sS'_datasets'
p1272
(lp1273
S"!obj:pylearn2.datasets.csv_dataset.CSVDataset {path: './train.csv', expect_headers: False,\n  end_fraction: .1}\n"
p1274
aS"!obj:pylearn2.datasets.csv_dataset.CSVDataset {path: './results2.csv', task: 'classification',\n  expect_labels: True, expect_headers: False, delimiter: ',', start_fraction: 0.9}\n"
p1275
aS"!obj:pylearn2.datasets.csv_dataset.CSVDataset {path: './train.csv', expect_headers: False,\n  start_fraction: .9}\n"
p1276
asS'_iteration_mode'
p1277
(lp1278
S'sequential'
p1279
ag1279
ag1279
asS'_data_specs_mapping'
p1280
g1
(cpylearn2.utils.data_specs
DataSpecsMapping
p1281
g3
NtRp1282
(dp1283
S'spec_mapping'
p1284
((I0
I1
t(I0
I1
t(I0
I1
t(I0
I1
t(I0
I1
t(I0
I1
t(I0
I1
t(I0
I1
t(I0
I1
t(I0
I1
t(I0
I1
t(I0
I1
t(I0
I1
t(I0
I1
t(I0
I1
t(I0
I1
t(I0
I1
t(I0
I1
t(I0
I1
t(I0
I1
t(I0
I1
t(I0
I1
t(I0
I1
t(I0
I1
t(I0
I1
t(I0
I1
t(I0
I1
t(I0
I1
t(I0
I1
t(I0
I1
t(I0
I1
t(I0
I1
t(I0
I1
t(I0
I1
t(I0
I1
t(I0
I1
t(I0
I1
t(I0
I1
t(I0
I1
t(I0
I1
t(I0
I1
t(I0
I1
t(I0
I1
t(I0
I1
t(I0
I1
t(I0
I1
t(I0
I1
t(I0
I1
t(I0
I1
t(I0
I1
t(I0
I1
t(I0
I1
t(I0
I1
t(I0
I1
t(I0
I1
t(I0
I1
t(I0
I1
t(I0
I1
t(I0
I1
t(I0
I1
t(I0
I1
t(I0
I1
t(I0
I1
t(I0
I1
t(I0
I1
t(I0
I1
t(I0
I1
t(I0
I1
t(I0
I1
t(I0
I1
t(I0
I1
t(I0
I1
t(I0
I1
t(I0
I1
t(I0
I1
t(I0
I1
t(I0
I1
t(I0
I1
t(I0
I1
t(I0
I1
t(I0
I1
t(I0
I1
t(I0
I1
t(I0
I1
t(I0
I1
t(I0
I1
t(I0
I1
t(I0
I1
t(I0
I1
t(I0
I1
t(I0
I1
tNNNtp1285
sS'specs_to_index'
p1286
(dp1287
(g181
g265
tp1288
I1
s(g28
g295
tp1289
I0
ssS'n_unique_specs'
p1290
I2
sbsS'training_succeeded'
p1291
I00
sS'_num_batches_seen'
p1292
I0
sS't0'
p1293
F1429549245.0062499
sS'on_channel_conflict'
p1294
S'error'
p1295
sg90
(lp1296
S'theano_function_mode'
p1297
aS'accum'
p1298
aS'begin_record_entry'
p1299
aS'num_examples'
p1300
aS'prereqs'
p1301
asS'model'
p1302
g4
sS'_nested_data_specs'
p1303
(g1
(g288
g3
NtRp1304
(dp1305
g33
(lp1306
sg292
(lp1307
g1
(g288
g3
NtRp1308
(dp1309
g33
(lp1310
sg292
(lp1311
g28
ag181
asg36
(lp1312
sbag1
(g288
g3
NtRp1313
(dp1314
g33
(lp1315
sg292
(lp1316
g28
ag181
asg36
(lp1317
sbag1
(g288
g3
NtRp1318
(dp1319
g33
(lp1320
sg292
(lp1321
g28
ag181
asg36
(lp1322
sbag1318
ag1318
ag1318
ag1318
ag1318
ag1318
ag1318
ag1318
ag1318
ag1318
ag1318
ag1318
ag1318
ag1318
ag1318
ag1318
ag1318
ag1318
ag1318
ag1318
ag1318
ag1318
ag1318
ag1318
ag1318
ag1318
ag1318
ag1318
ag1
(g288
g3
NtRp1323
(dp1324
g33
(lp1325
sg292
(lp1326
g28
ag181
asg36
(lp1327
sbag1318
ag1318
ag1318
ag1318
ag1318
ag1318
ag1318
ag1318
ag1318
ag1318
ag1318
ag1318
ag1318
ag1318
ag1318
ag1318
ag1318
ag1318
ag1318
ag1318
ag1318
ag1318
ag1318
ag1318
ag1318
ag1318
ag1318
ag1318
ag1318
ag1
(g288
g3
NtRp1328
(dp1329
g33
(lp1330
sg292
(lp1331
g28
ag181
asg36
(lp1332
sbag1318
ag1318
ag1318
ag1318
ag1318
ag1318
ag1318
ag1318
ag1318
ag1318
ag1318
ag1318
ag1318
ag1318
ag1318
ag1318
ag1318
ag1318
ag1318
ag1318
ag1318
ag1318
ag1318
ag1318
ag1318
ag1318
ag1318
ag1318
ag1318
ag1
(cpylearn2.space
NullSpace
p1333
g3
NtRp1334
(dp1335
g33
(lp1336
sg36
(lp1337
sbag1
(g1333
g3
NtRp1338
(dp1339
g33
(lp1340
sg36
(lp1341
sbag1
(g1333
g3
NtRp1342
(dp1343
g33
(lp1344
sg36
(lp1345
sbasg36
(lp1346
sb((g295
g265
t(g295
g265
tp1347
(g295
g265
tp1348
g1348
g1348
g1348
g1348
g1348
g1348
g1348
g1348
g1348
g1348
g1348
g1348
g1348
g1348
g1348
g1348
g1348
g1348
g1348
g1348
g1348
g1348
g1348
g1348
g1348
g1348
g1348
g1348
(g295
g265
tp1349
g1348
g1348
g1348
g1348
g1348
g1348
g1348
g1348
g1348
g1348
g1348
g1348
g1348
g1348
g1348
g1348
g1348
g1348
g1348
g1348
g1348
g1348
g1348
g1348
g1348
g1348
g1348
g1348
g1348
(g295
g265
tp1350
g1348
g1348
g1348
g1348
g1348
g1348
g1348
g1348
g1348
g1348
g1348
g1348
g1348
g1348
g1348
g1348
g1348
g1348
g1348
g1348
g1348
g1348
g1348
g1348
g1348
g1348
g1348
g1348
g1348
S''
S''
S''
ttp1351
sS'_rng_seed'
p1352
(lp1353
NaNaNasbaa(lp1354
S'force_batch_size'
p1355
aNaa(lp1356
S'_input_source'
p1357
ag295
aa(lp1358
S'_test_batch_size'
p1359
aI100
aa(lp1360
g116
aNaa(lp1361
S'dataset_yaml_src'
p1362
ag1275
aatRp1363
b.